
led_on.elf:     file format elf32-littlearm

Sections:
Idx Name          Size      VMA       LMA       File off  Algn
  0 .isr_vector   00000194  08000000  08000000  00010000  2**0
                  CONTENTS, ALLOC, LOAD, READONLY, DATA
  1 .text         000037b4  080001a0  080001a0  000101a0  2**4
                  CONTENTS, ALLOC, LOAD, READONLY, CODE
  2 .rodata       00000384  08003958  08003958  00013958  2**3
                  CONTENTS, ALLOC, LOAD, READONLY, DATA
  3 .ARM.extab    00000000  08003cdc  08003cdc  000201c8  2**0
                  CONTENTS
  4 .ARM          00000000  08003cdc  08003cdc  000201c8  2**0
                  CONTENTS
  5 .preinit_array 00000000  08003cdc  08003cdc  000201c8  2**0
                  CONTENTS, ALLOC, LOAD, DATA
  6 .init_array   00000004  08003cdc  08003cdc  00013cdc  2**2
                  CONTENTS, ALLOC, LOAD, DATA
  7 .fini_array   00000004  08003ce0  08003ce0  00013ce0  2**2
                  CONTENTS, ALLOC, LOAD, DATA
  8 .data         000001c8  20000000  08003ce4  00020000  2**2
                  CONTENTS, ALLOC, LOAD, DATA
  9 .bss          0000017c  200001c8  08003eac  000201c8  2**2
                  ALLOC
 10 ._user_heap_stack 00000604  20000344  08003eac  00020344  2**0
                  ALLOC
 11 .ARM.attributes 00000030  00000000  00000000  000201c8  2**0
                  CONTENTS, READONLY
 12 .comment      00000043  00000000  00000000  000201f8  2**0
                  CONTENTS, READONLY
 13 .debug_info   00001092  00000000  00000000  0002023b  2**0
                  CONTENTS, READONLY, DEBUGGING, OCTETS
 14 .debug_abbrev 00000441  00000000  00000000  000212cd  2**0
                  CONTENTS, READONLY, DEBUGGING, OCTETS
 15 .debug_aranges 00000140  00000000  00000000  00021710  2**3
                  CONTENTS, READONLY, DEBUGGING, OCTETS
 16 .debug_rnglists 000000da  00000000  00000000  00021850  2**0
                  CONTENTS, READONLY, DEBUGGING, OCTETS
 17 .debug_macro  0000f97a  00000000  00000000  0002192a  2**0
                  CONTENTS, READONLY, DEBUGGING, OCTETS
 18 .debug_line   00001b7e  00000000  00000000  000312a4  2**0
                  CONTENTS, READONLY, DEBUGGING, OCTETS
 19 .debug_str    000553c6  00000000  00000000  00032e22  2**0
                  CONTENTS, READONLY, DEBUGGING, OCTETS
 20 .debug_frame  00001444  00000000  00000000  000881e8  2**2
                  CONTENTS, READONLY, DEBUGGING, OCTETS
 21 .debug_line_str 00000059  00000000  00000000  0008962c  2**0
                  CONTENTS, READONLY, DEBUGGING, OCTETS

Disassembly of section .text:

080001a0 <__do_global_dtors_aux>:
 80001a0:	b510      	push	{r4, lr}
 80001a2:	4c05      	ldr	r4, [pc, #20]	; (80001b8 <__do_global_dtors_aux+0x18>)
 80001a4:	7823      	ldrb	r3, [r4, #0]
 80001a6:	b933      	cbnz	r3, 80001b6 <__do_global_dtors_aux+0x16>
 80001a8:	4b04      	ldr	r3, [pc, #16]	; (80001bc <__do_global_dtors_aux+0x1c>)
 80001aa:	b113      	cbz	r3, 80001b2 <__do_global_dtors_aux+0x12>
 80001ac:	4804      	ldr	r0, [pc, #16]	; (80001c0 <__do_global_dtors_aux+0x20>)
 80001ae:	f3af 8000 	nop.w
 80001b2:	2301      	movs	r3, #1
 80001b4:	7023      	strb	r3, [r4, #0]
 80001b6:	bd10      	pop	{r4, pc}
 80001b8:	200001c8 	.word	0x200001c8
 80001bc:	00000000 	.word	0x00000000
 80001c0:	0800393c 	.word	0x0800393c

080001c4 <frame_dummy>:
 80001c4:	b508      	push	{r3, lr}
 80001c6:	4b03      	ldr	r3, [pc, #12]	; (80001d4 <frame_dummy+0x10>)
 80001c8:	b11b      	cbz	r3, 80001d2 <frame_dummy+0xe>
 80001ca:	4903      	ldr	r1, [pc, #12]	; (80001d8 <frame_dummy+0x14>)
 80001cc:	4803      	ldr	r0, [pc, #12]	; (80001dc <frame_dummy+0x18>)
 80001ce:	f3af 8000 	nop.w
 80001d2:	bd08      	pop	{r3, pc}
 80001d4:	00000000 	.word	0x00000000
 80001d8:	200001cc 	.word	0x200001cc
 80001dc:	0800393c 	.word	0x0800393c

080001e0 <memchr>:
 80001e0:	f001 01ff 	and.w	r1, r1, #255	; 0xff
 80001e4:	2a10      	cmp	r2, #16
 80001e6:	db2b      	blt.n	8000240 <memchr+0x60>
 80001e8:	f010 0f07 	tst.w	r0, #7
 80001ec:	d008      	beq.n	8000200 <memchr+0x20>
 80001ee:	f810 3b01 	ldrb.w	r3, [r0], #1
 80001f2:	3a01      	subs	r2, #1
 80001f4:	428b      	cmp	r3, r1
 80001f6:	d02d      	beq.n	8000254 <memchr+0x74>
 80001f8:	f010 0f07 	tst.w	r0, #7
 80001fc:	b342      	cbz	r2, 8000250 <memchr+0x70>
 80001fe:	d1f6      	bne.n	80001ee <memchr+0xe>
 8000200:	b4f0      	push	{r4, r5, r6, r7}
 8000202:	ea41 2101 	orr.w	r1, r1, r1, lsl #8
 8000206:	ea41 4101 	orr.w	r1, r1, r1, lsl #16
 800020a:	f022 0407 	bic.w	r4, r2, #7
 800020e:	f07f 0700 	mvns.w	r7, #0
 8000212:	2300      	movs	r3, #0
 8000214:	e8f0 5602 	ldrd	r5, r6, [r0], #8
 8000218:	3c08      	subs	r4, #8
 800021a:	ea85 0501 	eor.w	r5, r5, r1
 800021e:	ea86 0601 	eor.w	r6, r6, r1
 8000222:	fa85 f547 	uadd8	r5, r5, r7
 8000226:	faa3 f587 	sel	r5, r3, r7
 800022a:	fa86 f647 	uadd8	r6, r6, r7
 800022e:	faa5 f687 	sel	r6, r5, r7
 8000232:	b98e      	cbnz	r6, 8000258 <memchr+0x78>
 8000234:	d1ee      	bne.n	8000214 <memchr+0x34>
 8000236:	bcf0      	pop	{r4, r5, r6, r7}
 8000238:	f001 01ff 	and.w	r1, r1, #255	; 0xff
 800023c:	f002 0207 	and.w	r2, r2, #7
 8000240:	b132      	cbz	r2, 8000250 <memchr+0x70>
 8000242:	f810 3b01 	ldrb.w	r3, [r0], #1
 8000246:	3a01      	subs	r2, #1
 8000248:	ea83 0301 	eor.w	r3, r3, r1
 800024c:	b113      	cbz	r3, 8000254 <memchr+0x74>
 800024e:	d1f8      	bne.n	8000242 <memchr+0x62>
 8000250:	2000      	movs	r0, #0
 8000252:	4770      	bx	lr
 8000254:	3801      	subs	r0, #1
 8000256:	4770      	bx	lr
 8000258:	2d00      	cmp	r5, #0
 800025a:	bf06      	itte	eq
 800025c:	4635      	moveq	r5, r6
 800025e:	3803      	subeq	r0, #3
 8000260:	3807      	subne	r0, #7
 8000262:	f015 0f01 	tst.w	r5, #1
 8000266:	d107      	bne.n	8000278 <memchr+0x98>
 8000268:	3001      	adds	r0, #1
 800026a:	f415 7f80 	tst.w	r5, #256	; 0x100
 800026e:	bf02      	ittt	eq
 8000270:	3001      	addeq	r0, #1
 8000272:	f415 3fc0 	tsteq.w	r5, #98304	; 0x18000
 8000276:	3001      	addeq	r0, #1
 8000278:	bcf0      	pop	{r4, r5, r6, r7}
 800027a:	3801      	subs	r0, #1
 800027c:	4770      	bx	lr
 800027e:	bf00      	nop

08000280 <strlen>:
 8000280:	4603      	mov	r3, r0
 8000282:	f813 2b01 	ldrb.w	r2, [r3], #1
 8000286:	2a00      	cmp	r2, #0
 8000288:	d1fb      	bne.n	8000282 <strlen+0x2>
 800028a:	1a18      	subs	r0, r3, r0
 800028c:	3801      	subs	r0, #1
 800028e:	4770      	bx	lr

08000290 <__aeabi_drsub>:
 8000290:	f081 4100 	eor.w	r1, r1, #2147483648	; 0x80000000
 8000294:	e002      	b.n	800029c <__adddf3>
 8000296:	bf00      	nop

08000298 <__aeabi_dsub>:
 8000298:	f083 4300 	eor.w	r3, r3, #2147483648	; 0x80000000

0800029c <__adddf3>:
 800029c:	b530      	push	{r4, r5, lr}
 800029e:	ea4f 0441 	mov.w	r4, r1, lsl #1
 80002a2:	ea4f 0543 	mov.w	r5, r3, lsl #1
 80002a6:	ea94 0f05 	teq	r4, r5
 80002aa:	bf08      	it	eq
 80002ac:	ea90 0f02 	teqeq	r0, r2
 80002b0:	bf1f      	itttt	ne
 80002b2:	ea54 0c00 	orrsne.w	ip, r4, r0
 80002b6:	ea55 0c02 	orrsne.w	ip, r5, r2
 80002ba:	ea7f 5c64 	mvnsne.w	ip, r4, asr #21
 80002be:	ea7f 5c65 	mvnsne.w	ip, r5, asr #21
 80002c2:	f000 80e2 	beq.w	800048a <__adddf3+0x1ee>
 80002c6:	ea4f 5454 	mov.w	r4, r4, lsr #21
 80002ca:	ebd4 5555 	rsbs	r5, r4, r5, lsr #21
 80002ce:	bfb8      	it	lt
 80002d0:	426d      	neglt	r5, r5
 80002d2:	dd0c      	ble.n	80002ee <__adddf3+0x52>
 80002d4:	442c      	add	r4, r5
 80002d6:	ea80 0202 	eor.w	r2, r0, r2
 80002da:	ea81 0303 	eor.w	r3, r1, r3
 80002de:	ea82 0000 	eor.w	r0, r2, r0
 80002e2:	ea83 0101 	eor.w	r1, r3, r1
 80002e6:	ea80 0202 	eor.w	r2, r0, r2
 80002ea:	ea81 0303 	eor.w	r3, r1, r3
 80002ee:	2d36      	cmp	r5, #54	; 0x36
 80002f0:	bf88      	it	hi
 80002f2:	bd30      	pophi	{r4, r5, pc}
 80002f4:	f011 4f00 	tst.w	r1, #2147483648	; 0x80000000
 80002f8:	ea4f 3101 	mov.w	r1, r1, lsl #12
 80002fc:	f44f 1c80 	mov.w	ip, #1048576	; 0x100000
 8000300:	ea4c 3111 	orr.w	r1, ip, r1, lsr #12
 8000304:	d002      	beq.n	800030c <__adddf3+0x70>
 8000306:	4240      	negs	r0, r0
 8000308:	eb61 0141 	sbc.w	r1, r1, r1, lsl #1
 800030c:	f013 4f00 	tst.w	r3, #2147483648	; 0x80000000
 8000310:	ea4f 3303 	mov.w	r3, r3, lsl #12
 8000314:	ea4c 3313 	orr.w	r3, ip, r3, lsr #12
 8000318:	d002      	beq.n	8000320 <__adddf3+0x84>
 800031a:	4252      	negs	r2, r2
 800031c:	eb63 0343 	sbc.w	r3, r3, r3, lsl #1
 8000320:	ea94 0f05 	teq	r4, r5
 8000324:	f000 80a7 	beq.w	8000476 <__adddf3+0x1da>
 8000328:	f1a4 0401 	sub.w	r4, r4, #1
 800032c:	f1d5 0e20 	rsbs	lr, r5, #32
 8000330:	db0d      	blt.n	800034e <__adddf3+0xb2>
 8000332:	fa02 fc0e 	lsl.w	ip, r2, lr
 8000336:	fa22 f205 	lsr.w	r2, r2, r5
 800033a:	1880      	adds	r0, r0, r2
 800033c:	f141 0100 	adc.w	r1, r1, #0
 8000340:	fa03 f20e 	lsl.w	r2, r3, lr
 8000344:	1880      	adds	r0, r0, r2
 8000346:	fa43 f305 	asr.w	r3, r3, r5
 800034a:	4159      	adcs	r1, r3
 800034c:	e00e      	b.n	800036c <__adddf3+0xd0>
 800034e:	f1a5 0520 	sub.w	r5, r5, #32
 8000352:	f10e 0e20 	add.w	lr, lr, #32
 8000356:	2a01      	cmp	r2, #1
 8000358:	fa03 fc0e 	lsl.w	ip, r3, lr
 800035c:	bf28      	it	cs
 800035e:	f04c 0c02 	orrcs.w	ip, ip, #2
 8000362:	fa43 f305 	asr.w	r3, r3, r5
 8000366:	18c0      	adds	r0, r0, r3
 8000368:	eb51 71e3 	adcs.w	r1, r1, r3, asr #31
 800036c:	f001 4500 	and.w	r5, r1, #2147483648	; 0x80000000
 8000370:	d507      	bpl.n	8000382 <__adddf3+0xe6>
 8000372:	f04f 0e00 	mov.w	lr, #0
 8000376:	f1dc 0c00 	rsbs	ip, ip, #0
 800037a:	eb7e 0000 	sbcs.w	r0, lr, r0
 800037e:	eb6e 0101 	sbc.w	r1, lr, r1
 8000382:	f5b1 1f80 	cmp.w	r1, #1048576	; 0x100000
 8000386:	d31b      	bcc.n	80003c0 <__adddf3+0x124>
 8000388:	f5b1 1f00 	cmp.w	r1, #2097152	; 0x200000
 800038c:	d30c      	bcc.n	80003a8 <__adddf3+0x10c>
 800038e:	0849      	lsrs	r1, r1, #1
 8000390:	ea5f 0030 	movs.w	r0, r0, rrx
 8000394:	ea4f 0c3c 	mov.w	ip, ip, rrx
 8000398:	f104 0401 	add.w	r4, r4, #1
 800039c:	ea4f 5244 	mov.w	r2, r4, lsl #21
 80003a0:	f512 0f80 	cmn.w	r2, #4194304	; 0x400000
 80003a4:	f080 809a 	bcs.w	80004dc <__adddf3+0x240>
 80003a8:	f1bc 4f00 	cmp.w	ip, #2147483648	; 0x80000000
 80003ac:	bf08      	it	eq
 80003ae:	ea5f 0c50 	movseq.w	ip, r0, lsr #1
 80003b2:	f150 0000 	adcs.w	r0, r0, #0
 80003b6:	eb41 5104 	adc.w	r1, r1, r4, lsl #20
 80003ba:	ea41 0105 	orr.w	r1, r1, r5
 80003be:	bd30      	pop	{r4, r5, pc}
 80003c0:	ea5f 0c4c 	movs.w	ip, ip, lsl #1
 80003c4:	4140      	adcs	r0, r0
 80003c6:	eb41 0101 	adc.w	r1, r1, r1
 80003ca:	3c01      	subs	r4, #1
 80003cc:	bf28      	it	cs
 80003ce:	f5b1 1f80 	cmpcs.w	r1, #1048576	; 0x100000
 80003d2:	d2e9      	bcs.n	80003a8 <__adddf3+0x10c>
 80003d4:	f091 0f00 	teq	r1, #0
 80003d8:	bf04      	itt	eq
 80003da:	4601      	moveq	r1, r0
 80003dc:	2000      	moveq	r0, #0
 80003de:	fab1 f381 	clz	r3, r1
 80003e2:	bf08      	it	eq
 80003e4:	3320      	addeq	r3, #32
 80003e6:	f1a3 030b 	sub.w	r3, r3, #11
 80003ea:	f1b3 0220 	subs.w	r2, r3, #32
 80003ee:	da0c      	bge.n	800040a <__adddf3+0x16e>
 80003f0:	320c      	adds	r2, #12
 80003f2:	dd08      	ble.n	8000406 <__adddf3+0x16a>
 80003f4:	f102 0c14 	add.w	ip, r2, #20
 80003f8:	f1c2 020c 	rsb	r2, r2, #12
 80003fc:	fa01 f00c 	lsl.w	r0, r1, ip
 8000400:	fa21 f102 	lsr.w	r1, r1, r2
 8000404:	e00c      	b.n	8000420 <__adddf3+0x184>
 8000406:	f102 0214 	add.w	r2, r2, #20
 800040a:	bfd8      	it	le
 800040c:	f1c2 0c20 	rsble	ip, r2, #32
 8000410:	fa01 f102 	lsl.w	r1, r1, r2
 8000414:	fa20 fc0c 	lsr.w	ip, r0, ip
 8000418:	bfdc      	itt	le
 800041a:	ea41 010c 	orrle.w	r1, r1, ip
 800041e:	4090      	lslle	r0, r2
 8000420:	1ae4      	subs	r4, r4, r3
 8000422:	bfa2      	ittt	ge
 8000424:	eb01 5104 	addge.w	r1, r1, r4, lsl #20
 8000428:	4329      	orrge	r1, r5
 800042a:	bd30      	popge	{r4, r5, pc}
 800042c:	ea6f 0404 	mvn.w	r4, r4
 8000430:	3c1f      	subs	r4, #31
 8000432:	da1c      	bge.n	800046e <__adddf3+0x1d2>
 8000434:	340c      	adds	r4, #12
 8000436:	dc0e      	bgt.n	8000456 <__adddf3+0x1ba>
 8000438:	f104 0414 	add.w	r4, r4, #20
 800043c:	f1c4 0220 	rsb	r2, r4, #32
 8000440:	fa20 f004 	lsr.w	r0, r0, r4
 8000444:	fa01 f302 	lsl.w	r3, r1, r2
 8000448:	ea40 0003 	orr.w	r0, r0, r3
 800044c:	fa21 f304 	lsr.w	r3, r1, r4
 8000450:	ea45 0103 	orr.w	r1, r5, r3
 8000454:	bd30      	pop	{r4, r5, pc}
 8000456:	f1c4 040c 	rsb	r4, r4, #12
 800045a:	f1c4 0220 	rsb	r2, r4, #32
 800045e:	fa20 f002 	lsr.w	r0, r0, r2
 8000462:	fa01 f304 	lsl.w	r3, r1, r4
 8000466:	ea40 0003 	orr.w	r0, r0, r3
 800046a:	4629      	mov	r1, r5
 800046c:	bd30      	pop	{r4, r5, pc}
 800046e:	fa21 f004 	lsr.w	r0, r1, r4
 8000472:	4629      	mov	r1, r5
 8000474:	bd30      	pop	{r4, r5, pc}
 8000476:	f094 0f00 	teq	r4, #0
 800047a:	f483 1380 	eor.w	r3, r3, #1048576	; 0x100000
 800047e:	bf06      	itte	eq
 8000480:	f481 1180 	eoreq.w	r1, r1, #1048576	; 0x100000
 8000484:	3401      	addeq	r4, #1
 8000486:	3d01      	subne	r5, #1
 8000488:	e74e      	b.n	8000328 <__adddf3+0x8c>
 800048a:	ea7f 5c64 	mvns.w	ip, r4, asr #21
 800048e:	bf18      	it	ne
 8000490:	ea7f 5c65 	mvnsne.w	ip, r5, asr #21
 8000494:	d029      	beq.n	80004ea <__adddf3+0x24e>
 8000496:	ea94 0f05 	teq	r4, r5
 800049a:	bf08      	it	eq
 800049c:	ea90 0f02 	teqeq	r0, r2
 80004a0:	d005      	beq.n	80004ae <__adddf3+0x212>
 80004a2:	ea54 0c00 	orrs.w	ip, r4, r0
 80004a6:	bf04      	itt	eq
 80004a8:	4619      	moveq	r1, r3
 80004aa:	4610      	moveq	r0, r2
 80004ac:	bd30      	pop	{r4, r5, pc}
 80004ae:	ea91 0f03 	teq	r1, r3
 80004b2:	bf1e      	ittt	ne
 80004b4:	2100      	movne	r1, #0
 80004b6:	2000      	movne	r0, #0
 80004b8:	bd30      	popne	{r4, r5, pc}
 80004ba:	ea5f 5c54 	movs.w	ip, r4, lsr #21
 80004be:	d105      	bne.n	80004cc <__adddf3+0x230>
 80004c0:	0040      	lsls	r0, r0, #1
 80004c2:	4149      	adcs	r1, r1
 80004c4:	bf28      	it	cs
 80004c6:	f041 4100 	orrcs.w	r1, r1, #2147483648	; 0x80000000
 80004ca:	bd30      	pop	{r4, r5, pc}
 80004cc:	f514 0480 	adds.w	r4, r4, #4194304	; 0x400000
 80004d0:	bf3c      	itt	cc
 80004d2:	f501 1180 	addcc.w	r1, r1, #1048576	; 0x100000
 80004d6:	bd30      	popcc	{r4, r5, pc}
 80004d8:	f001 4500 	and.w	r5, r1, #2147483648	; 0x80000000
 80004dc:	f045 41fe 	orr.w	r1, r5, #2130706432	; 0x7f000000
 80004e0:	f441 0170 	orr.w	r1, r1, #15728640	; 0xf00000
 80004e4:	f04f 0000 	mov.w	r0, #0
 80004e8:	bd30      	pop	{r4, r5, pc}
 80004ea:	ea7f 5c64 	mvns.w	ip, r4, asr #21
 80004ee:	bf1a      	itte	ne
 80004f0:	4619      	movne	r1, r3
 80004f2:	4610      	movne	r0, r2
 80004f4:	ea7f 5c65 	mvnseq.w	ip, r5, asr #21
 80004f8:	bf1c      	itt	ne
 80004fa:	460b      	movne	r3, r1
 80004fc:	4602      	movne	r2, r0
 80004fe:	ea50 3401 	orrs.w	r4, r0, r1, lsl #12
 8000502:	bf06      	itte	eq
 8000504:	ea52 3503 	orrseq.w	r5, r2, r3, lsl #12
 8000508:	ea91 0f03 	teqeq	r1, r3
 800050c:	f441 2100 	orrne.w	r1, r1, #524288	; 0x80000
 8000510:	bd30      	pop	{r4, r5, pc}
 8000512:	bf00      	nop

08000514 <__aeabi_ui2d>:
 8000514:	f090 0f00 	teq	r0, #0
 8000518:	bf04      	itt	eq
 800051a:	2100      	moveq	r1, #0
 800051c:	4770      	bxeq	lr
 800051e:	b530      	push	{r4, r5, lr}
 8000520:	f44f 6480 	mov.w	r4, #1024	; 0x400
 8000524:	f104 0432 	add.w	r4, r4, #50	; 0x32
 8000528:	f04f 0500 	mov.w	r5, #0
 800052c:	f04f 0100 	mov.w	r1, #0
 8000530:	e750      	b.n	80003d4 <__adddf3+0x138>
 8000532:	bf00      	nop

08000534 <__aeabi_i2d>:
 8000534:	f090 0f00 	teq	r0, #0
 8000538:	bf04      	itt	eq
 800053a:	2100      	moveq	r1, #0
 800053c:	4770      	bxeq	lr
 800053e:	b530      	push	{r4, r5, lr}
 8000540:	f44f 6480 	mov.w	r4, #1024	; 0x400
 8000544:	f104 0432 	add.w	r4, r4, #50	; 0x32
 8000548:	f010 4500 	ands.w	r5, r0, #2147483648	; 0x80000000
 800054c:	bf48      	it	mi
 800054e:	4240      	negmi	r0, r0
 8000550:	f04f 0100 	mov.w	r1, #0
 8000554:	e73e      	b.n	80003d4 <__adddf3+0x138>
 8000556:	bf00      	nop

08000558 <__aeabi_f2d>:
 8000558:	0042      	lsls	r2, r0, #1
 800055a:	ea4f 01e2 	mov.w	r1, r2, asr #3
 800055e:	ea4f 0131 	mov.w	r1, r1, rrx
 8000562:	ea4f 7002 	mov.w	r0, r2, lsl #28
 8000566:	bf1f      	itttt	ne
 8000568:	f012 437f 	andsne.w	r3, r2, #4278190080	; 0xff000000
 800056c:	f093 4f7f 	teqne	r3, #4278190080	; 0xff000000
 8000570:	f081 5160 	eorne.w	r1, r1, #939524096	; 0x38000000
 8000574:	4770      	bxne	lr
 8000576:	f032 427f 	bics.w	r2, r2, #4278190080	; 0xff000000
 800057a:	bf08      	it	eq
 800057c:	4770      	bxeq	lr
 800057e:	f093 4f7f 	teq	r3, #4278190080	; 0xff000000
 8000582:	bf04      	itt	eq
 8000584:	f441 2100 	orreq.w	r1, r1, #524288	; 0x80000
 8000588:	4770      	bxeq	lr
 800058a:	b530      	push	{r4, r5, lr}
 800058c:	f44f 7460 	mov.w	r4, #896	; 0x380
 8000590:	f001 4500 	and.w	r5, r1, #2147483648	; 0x80000000
 8000594:	f021 4100 	bic.w	r1, r1, #2147483648	; 0x80000000
 8000598:	e71c      	b.n	80003d4 <__adddf3+0x138>
 800059a:	bf00      	nop

0800059c <__aeabi_ul2d>:
 800059c:	ea50 0201 	orrs.w	r2, r0, r1
 80005a0:	bf08      	it	eq
 80005a2:	4770      	bxeq	lr
 80005a4:	b530      	push	{r4, r5, lr}
 80005a6:	f04f 0500 	mov.w	r5, #0
 80005aa:	e00a      	b.n	80005c2 <__aeabi_l2d+0x16>

080005ac <__aeabi_l2d>:
 80005ac:	ea50 0201 	orrs.w	r2, r0, r1
 80005b0:	bf08      	it	eq
 80005b2:	4770      	bxeq	lr
 80005b4:	b530      	push	{r4, r5, lr}
 80005b6:	f011 4500 	ands.w	r5, r1, #2147483648	; 0x80000000
 80005ba:	d502      	bpl.n	80005c2 <__aeabi_l2d+0x16>
 80005bc:	4240      	negs	r0, r0
 80005be:	eb61 0141 	sbc.w	r1, r1, r1, lsl #1
 80005c2:	f44f 6480 	mov.w	r4, #1024	; 0x400
 80005c6:	f104 0432 	add.w	r4, r4, #50	; 0x32
 80005ca:	ea5f 5c91 	movs.w	ip, r1, lsr #22
 80005ce:	f43f aed8 	beq.w	8000382 <__adddf3+0xe6>
 80005d2:	f04f 0203 	mov.w	r2, #3
 80005d6:	ea5f 0cdc 	movs.w	ip, ip, lsr #3
 80005da:	bf18      	it	ne
 80005dc:	3203      	addne	r2, #3
 80005de:	ea5f 0cdc 	movs.w	ip, ip, lsr #3
 80005e2:	bf18      	it	ne
 80005e4:	3203      	addne	r2, #3
 80005e6:	eb02 02dc 	add.w	r2, r2, ip, lsr #3
 80005ea:	f1c2 0320 	rsb	r3, r2, #32
 80005ee:	fa00 fc03 	lsl.w	ip, r0, r3
 80005f2:	fa20 f002 	lsr.w	r0, r0, r2
 80005f6:	fa01 fe03 	lsl.w	lr, r1, r3
 80005fa:	ea40 000e 	orr.w	r0, r0, lr
 80005fe:	fa21 f102 	lsr.w	r1, r1, r2
 8000602:	4414      	add	r4, r2
 8000604:	e6bd      	b.n	8000382 <__adddf3+0xe6>
 8000606:	bf00      	nop

08000608 <__aeabi_dmul>:
 8000608:	b570      	push	{r4, r5, r6, lr}
 800060a:	f04f 0cff 	mov.w	ip, #255	; 0xff
 800060e:	f44c 6ce0 	orr.w	ip, ip, #1792	; 0x700
 8000612:	ea1c 5411 	ands.w	r4, ip, r1, lsr #20
 8000616:	bf1d      	ittte	ne
 8000618:	ea1c 5513 	andsne.w	r5, ip, r3, lsr #20
 800061c:	ea94 0f0c 	teqne	r4, ip
 8000620:	ea95 0f0c 	teqne	r5, ip
 8000624:	f000 f8de 	bleq	80007e4 <__aeabi_dmul+0x1dc>
 8000628:	442c      	add	r4, r5
 800062a:	ea81 0603 	eor.w	r6, r1, r3
 800062e:	ea21 514c 	bic.w	r1, r1, ip, lsl #21
 8000632:	ea23 534c 	bic.w	r3, r3, ip, lsl #21
 8000636:	ea50 3501 	orrs.w	r5, r0, r1, lsl #12
 800063a:	bf18      	it	ne
 800063c:	ea52 3503 	orrsne.w	r5, r2, r3, lsl #12
 8000640:	f441 1180 	orr.w	r1, r1, #1048576	; 0x100000
 8000644:	f443 1380 	orr.w	r3, r3, #1048576	; 0x100000
 8000648:	d038      	beq.n	80006bc <__aeabi_dmul+0xb4>
 800064a:	fba0 ce02 	umull	ip, lr, r0, r2
 800064e:	f04f 0500 	mov.w	r5, #0
 8000652:	fbe1 e502 	umlal	lr, r5, r1, r2
 8000656:	f006 4200 	and.w	r2, r6, #2147483648	; 0x80000000
 800065a:	fbe0 e503 	umlal	lr, r5, r0, r3
 800065e:	f04f 0600 	mov.w	r6, #0
 8000662:	fbe1 5603 	umlal	r5, r6, r1, r3
 8000666:	f09c 0f00 	teq	ip, #0
 800066a:	bf18      	it	ne
 800066c:	f04e 0e01 	orrne.w	lr, lr, #1
 8000670:	f1a4 04ff 	sub.w	r4, r4, #255	; 0xff
 8000674:	f5b6 7f00 	cmp.w	r6, #512	; 0x200
 8000678:	f564 7440 	sbc.w	r4, r4, #768	; 0x300
 800067c:	d204      	bcs.n	8000688 <__aeabi_dmul+0x80>
 800067e:	ea5f 0e4e 	movs.w	lr, lr, lsl #1
 8000682:	416d      	adcs	r5, r5
 8000684:	eb46 0606 	adc.w	r6, r6, r6
 8000688:	ea42 21c6 	orr.w	r1, r2, r6, lsl #11
 800068c:	ea41 5155 	orr.w	r1, r1, r5, lsr #21
 8000690:	ea4f 20c5 	mov.w	r0, r5, lsl #11
 8000694:	ea40 505e 	orr.w	r0, r0, lr, lsr #21
 8000698:	ea4f 2ece 	mov.w	lr, lr, lsl #11
 800069c:	f1b4 0cfd 	subs.w	ip, r4, #253	; 0xfd
 80006a0:	bf88      	it	hi
 80006a2:	f5bc 6fe0 	cmphi.w	ip, #1792	; 0x700
 80006a6:	d81e      	bhi.n	80006e6 <__aeabi_dmul+0xde>
 80006a8:	f1be 4f00 	cmp.w	lr, #2147483648	; 0x80000000
 80006ac:	bf08      	it	eq
 80006ae:	ea5f 0e50 	movseq.w	lr, r0, lsr #1
 80006b2:	f150 0000 	adcs.w	r0, r0, #0
 80006b6:	eb41 5104 	adc.w	r1, r1, r4, lsl #20
 80006ba:	bd70      	pop	{r4, r5, r6, pc}
 80006bc:	f006 4600 	and.w	r6, r6, #2147483648	; 0x80000000
 80006c0:	ea46 0101 	orr.w	r1, r6, r1
 80006c4:	ea40 0002 	orr.w	r0, r0, r2
 80006c8:	ea81 0103 	eor.w	r1, r1, r3
 80006cc:	ebb4 045c 	subs.w	r4, r4, ip, lsr #1
 80006d0:	bfc2      	ittt	gt
 80006d2:	ebd4 050c 	rsbsgt	r5, r4, ip
 80006d6:	ea41 5104 	orrgt.w	r1, r1, r4, lsl #20
 80006da:	bd70      	popgt	{r4, r5, r6, pc}
 80006dc:	f441 1180 	orr.w	r1, r1, #1048576	; 0x100000
 80006e0:	f04f 0e00 	mov.w	lr, #0
 80006e4:	3c01      	subs	r4, #1
 80006e6:	f300 80ab 	bgt.w	8000840 <__aeabi_dmul+0x238>
 80006ea:	f114 0f36 	cmn.w	r4, #54	; 0x36
 80006ee:	bfde      	ittt	le
 80006f0:	2000      	movle	r0, #0
 80006f2:	f001 4100 	andle.w	r1, r1, #2147483648	; 0x80000000
 80006f6:	bd70      	pople	{r4, r5, r6, pc}
 80006f8:	f1c4 0400 	rsb	r4, r4, #0
 80006fc:	3c20      	subs	r4, #32
 80006fe:	da35      	bge.n	800076c <__aeabi_dmul+0x164>
 8000700:	340c      	adds	r4, #12
 8000702:	dc1b      	bgt.n	800073c <__aeabi_dmul+0x134>
 8000704:	f104 0414 	add.w	r4, r4, #20
 8000708:	f1c4 0520 	rsb	r5, r4, #32
 800070c:	fa00 f305 	lsl.w	r3, r0, r5
 8000710:	fa20 f004 	lsr.w	r0, r0, r4
 8000714:	fa01 f205 	lsl.w	r2, r1, r5
 8000718:	ea40 0002 	orr.w	r0, r0, r2
 800071c:	f001 4200 	and.w	r2, r1, #2147483648	; 0x80000000
 8000720:	f021 4100 	bic.w	r1, r1, #2147483648	; 0x80000000
 8000724:	eb10 70d3 	adds.w	r0, r0, r3, lsr #31
 8000728:	fa21 f604 	lsr.w	r6, r1, r4
 800072c:	eb42 0106 	adc.w	r1, r2, r6
 8000730:	ea5e 0e43 	orrs.w	lr, lr, r3, lsl #1
 8000734:	bf08      	it	eq
 8000736:	ea20 70d3 	biceq.w	r0, r0, r3, lsr #31
 800073a:	bd70      	pop	{r4, r5, r6, pc}
 800073c:	f1c4 040c 	rsb	r4, r4, #12
 8000740:	f1c4 0520 	rsb	r5, r4, #32
 8000744:	fa00 f304 	lsl.w	r3, r0, r4
 8000748:	fa20 f005 	lsr.w	r0, r0, r5
 800074c:	fa01 f204 	lsl.w	r2, r1, r4
 8000750:	ea40 0002 	orr.w	r0, r0, r2
 8000754:	f001 4100 	and.w	r1, r1, #2147483648	; 0x80000000
 8000758:	eb10 70d3 	adds.w	r0, r0, r3, lsr #31
 800075c:	f141 0100 	adc.w	r1, r1, #0
 8000760:	ea5e 0e43 	orrs.w	lr, lr, r3, lsl #1
 8000764:	bf08      	it	eq
 8000766:	ea20 70d3 	biceq.w	r0, r0, r3, lsr #31
 800076a:	bd70      	pop	{r4, r5, r6, pc}
 800076c:	f1c4 0520 	rsb	r5, r4, #32
 8000770:	fa00 f205 	lsl.w	r2, r0, r5
 8000774:	ea4e 0e02 	orr.w	lr, lr, r2
 8000778:	fa20 f304 	lsr.w	r3, r0, r4
 800077c:	fa01 f205 	lsl.w	r2, r1, r5
 8000780:	ea43 0302 	orr.w	r3, r3, r2
 8000784:	fa21 f004 	lsr.w	r0, r1, r4
 8000788:	f001 4100 	and.w	r1, r1, #2147483648	; 0x80000000
 800078c:	fa21 f204 	lsr.w	r2, r1, r4
 8000790:	ea20 0002 	bic.w	r0, r0, r2
 8000794:	eb00 70d3 	add.w	r0, r0, r3, lsr #31
 8000798:	ea5e 0e43 	orrs.w	lr, lr, r3, lsl #1
 800079c:	bf08      	it	eq
 800079e:	ea20 70d3 	biceq.w	r0, r0, r3, lsr #31
 80007a2:	bd70      	pop	{r4, r5, r6, pc}
 80007a4:	f094 0f00 	teq	r4, #0
 80007a8:	d10f      	bne.n	80007ca <__aeabi_dmul+0x1c2>
 80007aa:	f001 4600 	and.w	r6, r1, #2147483648	; 0x80000000
 80007ae:	0040      	lsls	r0, r0, #1
 80007b0:	eb41 0101 	adc.w	r1, r1, r1
 80007b4:	f411 1f80 	tst.w	r1, #1048576	; 0x100000
 80007b8:	bf08      	it	eq
 80007ba:	3c01      	subeq	r4, #1
 80007bc:	d0f7      	beq.n	80007ae <__aeabi_dmul+0x1a6>
 80007be:	ea41 0106 	orr.w	r1, r1, r6
 80007c2:	f095 0f00 	teq	r5, #0
 80007c6:	bf18      	it	ne
 80007c8:	4770      	bxne	lr
 80007ca:	f003 4600 	and.w	r6, r3, #2147483648	; 0x80000000
 80007ce:	0052      	lsls	r2, r2, #1
 80007d0:	eb43 0303 	adc.w	r3, r3, r3
 80007d4:	f413 1f80 	tst.w	r3, #1048576	; 0x100000
 80007d8:	bf08      	it	eq
 80007da:	3d01      	subeq	r5, #1
 80007dc:	d0f7      	beq.n	80007ce <__aeabi_dmul+0x1c6>
 80007de:	ea43 0306 	orr.w	r3, r3, r6
 80007e2:	4770      	bx	lr
 80007e4:	ea94 0f0c 	teq	r4, ip
 80007e8:	ea0c 5513 	and.w	r5, ip, r3, lsr #20
 80007ec:	bf18      	it	ne
 80007ee:	ea95 0f0c 	teqne	r5, ip
 80007f2:	d00c      	beq.n	800080e <__aeabi_dmul+0x206>
 80007f4:	ea50 0641 	orrs.w	r6, r0, r1, lsl #1
 80007f8:	bf18      	it	ne
 80007fa:	ea52 0643 	orrsne.w	r6, r2, r3, lsl #1
 80007fe:	d1d1      	bne.n	80007a4 <__aeabi_dmul+0x19c>
 8000800:	ea81 0103 	eor.w	r1, r1, r3
 8000804:	f001 4100 	and.w	r1, r1, #2147483648	; 0x80000000
 8000808:	f04f 0000 	mov.w	r0, #0
 800080c:	bd70      	pop	{r4, r5, r6, pc}
 800080e:	ea50 0641 	orrs.w	r6, r0, r1, lsl #1
 8000812:	bf06      	itte	eq
 8000814:	4610      	moveq	r0, r2
 8000816:	4619      	moveq	r1, r3
 8000818:	ea52 0643 	orrsne.w	r6, r2, r3, lsl #1
 800081c:	d019      	beq.n	8000852 <__aeabi_dmul+0x24a>
 800081e:	ea94 0f0c 	teq	r4, ip
 8000822:	d102      	bne.n	800082a <__aeabi_dmul+0x222>
 8000824:	ea50 3601 	orrs.w	r6, r0, r1, lsl #12
 8000828:	d113      	bne.n	8000852 <__aeabi_dmul+0x24a>
 800082a:	ea95 0f0c 	teq	r5, ip
 800082e:	d105      	bne.n	800083c <__aeabi_dmul+0x234>
 8000830:	ea52 3603 	orrs.w	r6, r2, r3, lsl #12
 8000834:	bf1c      	itt	ne
 8000836:	4610      	movne	r0, r2
 8000838:	4619      	movne	r1, r3
 800083a:	d10a      	bne.n	8000852 <__aeabi_dmul+0x24a>
 800083c:	ea81 0103 	eor.w	r1, r1, r3
 8000840:	f001 4100 	and.w	r1, r1, #2147483648	; 0x80000000
 8000844:	f041 41fe 	orr.w	r1, r1, #2130706432	; 0x7f000000
 8000848:	f441 0170 	orr.w	r1, r1, #15728640	; 0xf00000
 800084c:	f04f 0000 	mov.w	r0, #0
 8000850:	bd70      	pop	{r4, r5, r6, pc}
 8000852:	f041 41fe 	orr.w	r1, r1, #2130706432	; 0x7f000000
 8000856:	f441 0178 	orr.w	r1, r1, #16252928	; 0xf80000
 800085a:	bd70      	pop	{r4, r5, r6, pc}

0800085c <__aeabi_ddiv>:
 800085c:	b570      	push	{r4, r5, r6, lr}
 800085e:	f04f 0cff 	mov.w	ip, #255	; 0xff
 8000862:	f44c 6ce0 	orr.w	ip, ip, #1792	; 0x700
 8000866:	ea1c 5411 	ands.w	r4, ip, r1, lsr #20
 800086a:	bf1d      	ittte	ne
 800086c:	ea1c 5513 	andsne.w	r5, ip, r3, lsr #20
 8000870:	ea94 0f0c 	teqne	r4, ip
 8000874:	ea95 0f0c 	teqne	r5, ip
 8000878:	f000 f8a7 	bleq	80009ca <__aeabi_ddiv+0x16e>
 800087c:	eba4 0405 	sub.w	r4, r4, r5
 8000880:	ea81 0e03 	eor.w	lr, r1, r3
 8000884:	ea52 3503 	orrs.w	r5, r2, r3, lsl #12
 8000888:	ea4f 3101 	mov.w	r1, r1, lsl #12
 800088c:	f000 8088 	beq.w	80009a0 <__aeabi_ddiv+0x144>
 8000890:	ea4f 3303 	mov.w	r3, r3, lsl #12
 8000894:	f04f 5580 	mov.w	r5, #268435456	; 0x10000000
 8000898:	ea45 1313 	orr.w	r3, r5, r3, lsr #4
 800089c:	ea43 6312 	orr.w	r3, r3, r2, lsr #24
 80008a0:	ea4f 2202 	mov.w	r2, r2, lsl #8
 80008a4:	ea45 1511 	orr.w	r5, r5, r1, lsr #4
 80008a8:	ea45 6510 	orr.w	r5, r5, r0, lsr #24
 80008ac:	ea4f 2600 	mov.w	r6, r0, lsl #8
 80008b0:	f00e 4100 	and.w	r1, lr, #2147483648	; 0x80000000
 80008b4:	429d      	cmp	r5, r3
 80008b6:	bf08      	it	eq
 80008b8:	4296      	cmpeq	r6, r2
 80008ba:	f144 04fd 	adc.w	r4, r4, #253	; 0xfd
 80008be:	f504 7440 	add.w	r4, r4, #768	; 0x300
 80008c2:	d202      	bcs.n	80008ca <__aeabi_ddiv+0x6e>
 80008c4:	085b      	lsrs	r3, r3, #1
 80008c6:	ea4f 0232 	mov.w	r2, r2, rrx
 80008ca:	1ab6      	subs	r6, r6, r2
 80008cc:	eb65 0503 	sbc.w	r5, r5, r3
 80008d0:	085b      	lsrs	r3, r3, #1
 80008d2:	ea4f 0232 	mov.w	r2, r2, rrx
 80008d6:	f44f 1080 	mov.w	r0, #1048576	; 0x100000
 80008da:	f44f 2c00 	mov.w	ip, #524288	; 0x80000
 80008de:	ebb6 0e02 	subs.w	lr, r6, r2
 80008e2:	eb75 0e03 	sbcs.w	lr, r5, r3
 80008e6:	bf22      	ittt	cs
 80008e8:	1ab6      	subcs	r6, r6, r2
 80008ea:	4675      	movcs	r5, lr
 80008ec:	ea40 000c 	orrcs.w	r0, r0, ip
 80008f0:	085b      	lsrs	r3, r3, #1
 80008f2:	ea4f 0232 	mov.w	r2, r2, rrx
 80008f6:	ebb6 0e02 	subs.w	lr, r6, r2
 80008fa:	eb75 0e03 	sbcs.w	lr, r5, r3
 80008fe:	bf22      	ittt	cs
 8000900:	1ab6      	subcs	r6, r6, r2
 8000902:	4675      	movcs	r5, lr
 8000904:	ea40 005c 	orrcs.w	r0, r0, ip, lsr #1
 8000908:	085b      	lsrs	r3, r3, #1
 800090a:	ea4f 0232 	mov.w	r2, r2, rrx
 800090e:	ebb6 0e02 	subs.w	lr, r6, r2
 8000912:	eb75 0e03 	sbcs.w	lr, r5, r3
 8000916:	bf22      	ittt	cs
 8000918:	1ab6      	subcs	r6, r6, r2
 800091a:	4675      	movcs	r5, lr
 800091c:	ea40 009c 	orrcs.w	r0, r0, ip, lsr #2
 8000920:	085b      	lsrs	r3, r3, #1
 8000922:	ea4f 0232 	mov.w	r2, r2, rrx
 8000926:	ebb6 0e02 	subs.w	lr, r6, r2
 800092a:	eb75 0e03 	sbcs.w	lr, r5, r3
 800092e:	bf22      	ittt	cs
 8000930:	1ab6      	subcs	r6, r6, r2
 8000932:	4675      	movcs	r5, lr
 8000934:	ea40 00dc 	orrcs.w	r0, r0, ip, lsr #3
 8000938:	ea55 0e06 	orrs.w	lr, r5, r6
 800093c:	d018      	beq.n	8000970 <__aeabi_ddiv+0x114>
 800093e:	ea4f 1505 	mov.w	r5, r5, lsl #4
 8000942:	ea45 7516 	orr.w	r5, r5, r6, lsr #28
 8000946:	ea4f 1606 	mov.w	r6, r6, lsl #4
 800094a:	ea4f 03c3 	mov.w	r3, r3, lsl #3
 800094e:	ea43 7352 	orr.w	r3, r3, r2, lsr #29
 8000952:	ea4f 02c2 	mov.w	r2, r2, lsl #3
 8000956:	ea5f 1c1c 	movs.w	ip, ip, lsr #4
 800095a:	d1c0      	bne.n	80008de <__aeabi_ddiv+0x82>
 800095c:	f411 1f80 	tst.w	r1, #1048576	; 0x100000
 8000960:	d10b      	bne.n	800097a <__aeabi_ddiv+0x11e>
 8000962:	ea41 0100 	orr.w	r1, r1, r0
 8000966:	f04f 0000 	mov.w	r0, #0
 800096a:	f04f 4c00 	mov.w	ip, #2147483648	; 0x80000000
 800096e:	e7b6      	b.n	80008de <__aeabi_ddiv+0x82>
 8000970:	f411 1f80 	tst.w	r1, #1048576	; 0x100000
 8000974:	bf04      	itt	eq
 8000976:	4301      	orreq	r1, r0
 8000978:	2000      	moveq	r0, #0
 800097a:	f1b4 0cfd 	subs.w	ip, r4, #253	; 0xfd
 800097e:	bf88      	it	hi
 8000980:	f5bc 6fe0 	cmphi.w	ip, #1792	; 0x700
 8000984:	f63f aeaf 	bhi.w	80006e6 <__aeabi_dmul+0xde>
 8000988:	ebb5 0c03 	subs.w	ip, r5, r3
 800098c:	bf04      	itt	eq
 800098e:	ebb6 0c02 	subseq.w	ip, r6, r2
 8000992:	ea5f 0c50 	movseq.w	ip, r0, lsr #1
 8000996:	f150 0000 	adcs.w	r0, r0, #0
 800099a:	eb41 5104 	adc.w	r1, r1, r4, lsl #20
 800099e:	bd70      	pop	{r4, r5, r6, pc}
 80009a0:	f00e 4e00 	and.w	lr, lr, #2147483648	; 0x80000000
 80009a4:	ea4e 3111 	orr.w	r1, lr, r1, lsr #12
 80009a8:	eb14 045c 	adds.w	r4, r4, ip, lsr #1
 80009ac:	bfc2      	ittt	gt
 80009ae:	ebd4 050c 	rsbsgt	r5, r4, ip
 80009b2:	ea41 5104 	orrgt.w	r1, r1, r4, lsl #20
 80009b6:	bd70      	popgt	{r4, r5, r6, pc}
 80009b8:	f441 1180 	orr.w	r1, r1, #1048576	; 0x100000
 80009bc:	f04f 0e00 	mov.w	lr, #0
 80009c0:	3c01      	subs	r4, #1
 80009c2:	e690      	b.n	80006e6 <__aeabi_dmul+0xde>
 80009c4:	ea45 0e06 	orr.w	lr, r5, r6
 80009c8:	e68d      	b.n	80006e6 <__aeabi_dmul+0xde>
 80009ca:	ea0c 5513 	and.w	r5, ip, r3, lsr #20
 80009ce:	ea94 0f0c 	teq	r4, ip
 80009d2:	bf08      	it	eq
 80009d4:	ea95 0f0c 	teqeq	r5, ip
 80009d8:	f43f af3b 	beq.w	8000852 <__aeabi_dmul+0x24a>
 80009dc:	ea94 0f0c 	teq	r4, ip
 80009e0:	d10a      	bne.n	80009f8 <__aeabi_ddiv+0x19c>
 80009e2:	ea50 3401 	orrs.w	r4, r0, r1, lsl #12
 80009e6:	f47f af34 	bne.w	8000852 <__aeabi_dmul+0x24a>
 80009ea:	ea95 0f0c 	teq	r5, ip
 80009ee:	f47f af25 	bne.w	800083c <__aeabi_dmul+0x234>
 80009f2:	4610      	mov	r0, r2
 80009f4:	4619      	mov	r1, r3
 80009f6:	e72c      	b.n	8000852 <__aeabi_dmul+0x24a>
 80009f8:	ea95 0f0c 	teq	r5, ip
 80009fc:	d106      	bne.n	8000a0c <__aeabi_ddiv+0x1b0>
 80009fe:	ea52 3503 	orrs.w	r5, r2, r3, lsl #12
 8000a02:	f43f aefd 	beq.w	8000800 <__aeabi_dmul+0x1f8>
 8000a06:	4610      	mov	r0, r2
 8000a08:	4619      	mov	r1, r3
 8000a0a:	e722      	b.n	8000852 <__aeabi_dmul+0x24a>
 8000a0c:	ea50 0641 	orrs.w	r6, r0, r1, lsl #1
 8000a10:	bf18      	it	ne
 8000a12:	ea52 0643 	orrsne.w	r6, r2, r3, lsl #1
 8000a16:	f47f aec5 	bne.w	80007a4 <__aeabi_dmul+0x19c>
 8000a1a:	ea50 0441 	orrs.w	r4, r0, r1, lsl #1
 8000a1e:	f47f af0d 	bne.w	800083c <__aeabi_dmul+0x234>
 8000a22:	ea52 0543 	orrs.w	r5, r2, r3, lsl #1
 8000a26:	f47f aeeb 	bne.w	8000800 <__aeabi_dmul+0x1f8>
 8000a2a:	e712      	b.n	8000852 <__aeabi_dmul+0x24a>

08000a2c <__gedf2>:
 8000a2c:	f04f 3cff 	mov.w	ip, #4294967295
 8000a30:	e006      	b.n	8000a40 <__cmpdf2+0x4>
 8000a32:	bf00      	nop

08000a34 <__ledf2>:
 8000a34:	f04f 0c01 	mov.w	ip, #1
 8000a38:	e002      	b.n	8000a40 <__cmpdf2+0x4>
 8000a3a:	bf00      	nop

08000a3c <__cmpdf2>:
 8000a3c:	f04f 0c01 	mov.w	ip, #1
 8000a40:	f84d cd04 	str.w	ip, [sp, #-4]!
 8000a44:	ea4f 0c41 	mov.w	ip, r1, lsl #1
 8000a48:	ea7f 5c6c 	mvns.w	ip, ip, asr #21
 8000a4c:	ea4f 0c43 	mov.w	ip, r3, lsl #1
 8000a50:	bf18      	it	ne
 8000a52:	ea7f 5c6c 	mvnsne.w	ip, ip, asr #21
 8000a56:	d01b      	beq.n	8000a90 <__cmpdf2+0x54>
 8000a58:	b001      	add	sp, #4
 8000a5a:	ea50 0c41 	orrs.w	ip, r0, r1, lsl #1
 8000a5e:	bf0c      	ite	eq
 8000a60:	ea52 0c43 	orrseq.w	ip, r2, r3, lsl #1
 8000a64:	ea91 0f03 	teqne	r1, r3
 8000a68:	bf02      	ittt	eq
 8000a6a:	ea90 0f02 	teqeq	r0, r2
 8000a6e:	2000      	moveq	r0, #0
 8000a70:	4770      	bxeq	lr
 8000a72:	f110 0f00 	cmn.w	r0, #0
 8000a76:	ea91 0f03 	teq	r1, r3
 8000a7a:	bf58      	it	pl
 8000a7c:	4299      	cmppl	r1, r3
 8000a7e:	bf08      	it	eq
 8000a80:	4290      	cmpeq	r0, r2
 8000a82:	bf2c      	ite	cs
 8000a84:	17d8      	asrcs	r0, r3, #31
 8000a86:	ea6f 70e3 	mvncc.w	r0, r3, asr #31
 8000a8a:	f040 0001 	orr.w	r0, r0, #1
 8000a8e:	4770      	bx	lr
 8000a90:	ea4f 0c41 	mov.w	ip, r1, lsl #1
 8000a94:	ea7f 5c6c 	mvns.w	ip, ip, asr #21
 8000a98:	d102      	bne.n	8000aa0 <__cmpdf2+0x64>
 8000a9a:	ea50 3c01 	orrs.w	ip, r0, r1, lsl #12
 8000a9e:	d107      	bne.n	8000ab0 <__cmpdf2+0x74>
 8000aa0:	ea4f 0c43 	mov.w	ip, r3, lsl #1
 8000aa4:	ea7f 5c6c 	mvns.w	ip, ip, asr #21
 8000aa8:	d1d6      	bne.n	8000a58 <__cmpdf2+0x1c>
 8000aaa:	ea52 3c03 	orrs.w	ip, r2, r3, lsl #12
 8000aae:	d0d3      	beq.n	8000a58 <__cmpdf2+0x1c>
 8000ab0:	f85d 0b04 	ldr.w	r0, [sp], #4
 8000ab4:	4770      	bx	lr
 8000ab6:	bf00      	nop

08000ab8 <__aeabi_cdrcmple>:
 8000ab8:	4684      	mov	ip, r0
 8000aba:	4610      	mov	r0, r2
 8000abc:	4662      	mov	r2, ip
 8000abe:	468c      	mov	ip, r1
 8000ac0:	4619      	mov	r1, r3
 8000ac2:	4663      	mov	r3, ip
 8000ac4:	e000      	b.n	8000ac8 <__aeabi_cdcmpeq>
 8000ac6:	bf00      	nop

08000ac8 <__aeabi_cdcmpeq>:
 8000ac8:	b501      	push	{r0, lr}
 8000aca:	f7ff ffb7 	bl	8000a3c <__cmpdf2>
 8000ace:	2800      	cmp	r0, #0
 8000ad0:	bf48      	it	mi
 8000ad2:	f110 0f00 	cmnmi.w	r0, #0
 8000ad6:	bd01      	pop	{r0, pc}

08000ad8 <__aeabi_dcmpeq>:
 8000ad8:	f84d ed08 	str.w	lr, [sp, #-8]!
 8000adc:	f7ff fff4 	bl	8000ac8 <__aeabi_cdcmpeq>
 8000ae0:	bf0c      	ite	eq
 8000ae2:	2001      	moveq	r0, #1
 8000ae4:	2000      	movne	r0, #0
 8000ae6:	f85d fb08 	ldr.w	pc, [sp], #8
 8000aea:	bf00      	nop

08000aec <__aeabi_dcmplt>:
 8000aec:	f84d ed08 	str.w	lr, [sp, #-8]!
 8000af0:	f7ff ffea 	bl	8000ac8 <__aeabi_cdcmpeq>
 8000af4:	bf34      	ite	cc
 8000af6:	2001      	movcc	r0, #1
 8000af8:	2000      	movcs	r0, #0
 8000afa:	f85d fb08 	ldr.w	pc, [sp], #8
 8000afe:	bf00      	nop

08000b00 <__aeabi_dcmple>:
 8000b00:	f84d ed08 	str.w	lr, [sp, #-8]!
 8000b04:	f7ff ffe0 	bl	8000ac8 <__aeabi_cdcmpeq>
 8000b08:	bf94      	ite	ls
 8000b0a:	2001      	movls	r0, #1
 8000b0c:	2000      	movhi	r0, #0
 8000b0e:	f85d fb08 	ldr.w	pc, [sp], #8
 8000b12:	bf00      	nop

08000b14 <__aeabi_dcmpge>:
 8000b14:	f84d ed08 	str.w	lr, [sp, #-8]!
 8000b18:	f7ff ffce 	bl	8000ab8 <__aeabi_cdrcmple>
 8000b1c:	bf94      	ite	ls
 8000b1e:	2001      	movls	r0, #1
 8000b20:	2000      	movhi	r0, #0
 8000b22:	f85d fb08 	ldr.w	pc, [sp], #8
 8000b26:	bf00      	nop

08000b28 <__aeabi_dcmpgt>:
 8000b28:	f84d ed08 	str.w	lr, [sp, #-8]!
 8000b2c:	f7ff ffc4 	bl	8000ab8 <__aeabi_cdrcmple>
 8000b30:	bf34      	ite	cc
 8000b32:	2001      	movcc	r0, #1
 8000b34:	2000      	movcs	r0, #0
 8000b36:	f85d fb08 	ldr.w	pc, [sp], #8
 8000b3a:	bf00      	nop

08000b3c <__aeabi_dcmpun>:
 8000b3c:	ea4f 0c41 	mov.w	ip, r1, lsl #1
 8000b40:	ea7f 5c6c 	mvns.w	ip, ip, asr #21
 8000b44:	d102      	bne.n	8000b4c <__aeabi_dcmpun+0x10>
 8000b46:	ea50 3c01 	orrs.w	ip, r0, r1, lsl #12
 8000b4a:	d10a      	bne.n	8000b62 <__aeabi_dcmpun+0x26>
 8000b4c:	ea4f 0c43 	mov.w	ip, r3, lsl #1
 8000b50:	ea7f 5c6c 	mvns.w	ip, ip, asr #21
 8000b54:	d102      	bne.n	8000b5c <__aeabi_dcmpun+0x20>
 8000b56:	ea52 3c03 	orrs.w	ip, r2, r3, lsl #12
 8000b5a:	d102      	bne.n	8000b62 <__aeabi_dcmpun+0x26>
 8000b5c:	f04f 0000 	mov.w	r0, #0
 8000b60:	4770      	bx	lr
 8000b62:	f04f 0001 	mov.w	r0, #1
 8000b66:	4770      	bx	lr

08000b68 <__aeabi_d2iz>:
 8000b68:	ea4f 0241 	mov.w	r2, r1, lsl #1
 8000b6c:	f512 1200 	adds.w	r2, r2, #2097152	; 0x200000
 8000b70:	d215      	bcs.n	8000b9e <__aeabi_d2iz+0x36>
 8000b72:	d511      	bpl.n	8000b98 <__aeabi_d2iz+0x30>
 8000b74:	f46f 7378 	mvn.w	r3, #992	; 0x3e0
 8000b78:	ebb3 5262 	subs.w	r2, r3, r2, asr #21
 8000b7c:	d912      	bls.n	8000ba4 <__aeabi_d2iz+0x3c>
 8000b7e:	ea4f 23c1 	mov.w	r3, r1, lsl #11
 8000b82:	f043 4300 	orr.w	r3, r3, #2147483648	; 0x80000000
 8000b86:	ea43 5350 	orr.w	r3, r3, r0, lsr #21
 8000b8a:	f011 4f00 	tst.w	r1, #2147483648	; 0x80000000
 8000b8e:	fa23 f002 	lsr.w	r0, r3, r2
 8000b92:	bf18      	it	ne
 8000b94:	4240      	negne	r0, r0
 8000b96:	4770      	bx	lr
 8000b98:	f04f 0000 	mov.w	r0, #0
 8000b9c:	4770      	bx	lr
 8000b9e:	ea50 3001 	orrs.w	r0, r0, r1, lsl #12
 8000ba2:	d105      	bne.n	8000bb0 <__aeabi_d2iz+0x48>
 8000ba4:	f011 4000 	ands.w	r0, r1, #2147483648	; 0x80000000
 8000ba8:	bf08      	it	eq
 8000baa:	f06f 4000 	mvneq.w	r0, #2147483648	; 0x80000000
 8000bae:	4770      	bx	lr
 8000bb0:	f04f 0000 	mov.w	r0, #0
 8000bb4:	4770      	bx	lr
 8000bb6:	bf00      	nop

08000bb8 <main>:
uint32_t value2 = 0;
float frequency = 0;
uint32_t diff = 0;

int main(void)
{
 8000bb8:	b580      	push	{r7, lr}
 8000bba:	af00      	add	r7, sp, #0
	SCB->CPACR |= ((3UL << 20)|(3UL << 11*2)); //enabling fpu
 8000bbc:	4b34      	ldr	r3, [pc, #208]	; (8000c90 <main+0xd8>)
 8000bbe:	f8d3 3088 	ldr.w	r3, [r3, #136]	; 0x88
 8000bc2:	4a33      	ldr	r2, [pc, #204]	; (8000c90 <main+0xd8>)
 8000bc4:	f443 0370 	orr.w	r3, r3, #15728640	; 0xf00000
 8000bc8:	f8c2 3088 	str.w	r3, [r2, #136]	; 0x88
	tim2_pa5_input_capture(); //setup
 8000bcc:	f000 f95c 	bl	8000e88 <tim2_pa5_input_capture>

    while(1){
    	while(!(READ_BIT(TIM2->SR,TIM_SR_CC1IF))){
 8000bd0:	bf00      	nop
 8000bd2:	f04f 4380 	mov.w	r3, #1073741824	; 0x40000000
 8000bd6:	691b      	ldr	r3, [r3, #16]
 8000bd8:	f003 0302 	and.w	r3, r3, #2
 8000bdc:	2b00      	cmp	r3, #0
 8000bde:	d0f8      	beq.n	8000bd2 <main+0x1a>


    	}
    	if (value1 == 0){
 8000be0:	4b2c      	ldr	r3, [pc, #176]	; (8000c94 <main+0xdc>)
 8000be2:	681b      	ldr	r3, [r3, #0]
 8000be4:	2b00      	cmp	r3, #0
 8000be6:	d105      	bne.n	8000bf4 <main+0x3c>
    		value1 = TIM2->CCR1;
 8000be8:	f04f 4380 	mov.w	r3, #1073741824	; 0x40000000
 8000bec:	6b5b      	ldr	r3, [r3, #52]	; 0x34
 8000bee:	4a29      	ldr	r2, [pc, #164]	; (8000c94 <main+0xdc>)
 8000bf0:	6013      	str	r3, [r2, #0]
 8000bf2:	e044      	b.n	8000c7e <main+0xc6>
    	}else{
    		value2 = TIM2->CCR1;
 8000bf4:	f04f 4380 	mov.w	r3, #1073741824	; 0x40000000
 8000bf8:	6b5b      	ldr	r3, [r3, #52]	; 0x34
 8000bfa:	4a27      	ldr	r2, [pc, #156]	; (8000c98 <main+0xe0>)
 8000bfc:	6013      	str	r3, [r2, #0]
    		if(value1 <= value2){
 8000bfe:	4b25      	ldr	r3, [pc, #148]	; (8000c94 <main+0xdc>)
 8000c00:	681a      	ldr	r2, [r3, #0]
 8000c02:	4b25      	ldr	r3, [pc, #148]	; (8000c98 <main+0xe0>)
 8000c04:	681b      	ldr	r3, [r3, #0]
 8000c06:	429a      	cmp	r2, r3
 8000c08:	d807      	bhi.n	8000c1a <main+0x62>
    			diff = (value2-value1);
 8000c0a:	4b23      	ldr	r3, [pc, #140]	; (8000c98 <main+0xe0>)
 8000c0c:	681a      	ldr	r2, [r3, #0]
 8000c0e:	4b21      	ldr	r3, [pc, #132]	; (8000c94 <main+0xdc>)
 8000c10:	681b      	ldr	r3, [r3, #0]
 8000c12:	1ad3      	subs	r3, r2, r3
 8000c14:	4a21      	ldr	r2, [pc, #132]	; (8000c9c <main+0xe4>)
 8000c16:	6013      	str	r3, [r2, #0]
 8000c18:	e00b      	b.n	8000c32 <main+0x7a>
    		}else{
    			diff = ((READ_REG(TIM2->ARR))-value1)+value2+1;
 8000c1a:	f04f 4380 	mov.w	r3, #1073741824	; 0x40000000
 8000c1e:	6ada      	ldr	r2, [r3, #44]	; 0x2c
 8000c20:	4b1c      	ldr	r3, [pc, #112]	; (8000c94 <main+0xdc>)
 8000c22:	681b      	ldr	r3, [r3, #0]
 8000c24:	1ad2      	subs	r2, r2, r3
 8000c26:	4b1c      	ldr	r3, [pc, #112]	; (8000c98 <main+0xe0>)
 8000c28:	681b      	ldr	r3, [r3, #0]
 8000c2a:	4413      	add	r3, r2
 8000c2c:	3301      	adds	r3, #1
 8000c2e:	4a1b      	ldr	r2, [pc, #108]	; (8000c9c <main+0xe4>)
 8000c30:	6013      	str	r3, [r2, #0]
    		}
    		if (diff != 0){
 8000c32:	4b1a      	ldr	r3, [pc, #104]	; (8000c9c <main+0xe4>)
 8000c34:	681b      	ldr	r3, [r3, #0]
 8000c36:	2b00      	cmp	r3, #0
 8000c38:	d00d      	beq.n	8000c56 <main+0x9e>
    			frequency = (float)1000000/diff;
 8000c3a:	4b18      	ldr	r3, [pc, #96]	; (8000c9c <main+0xe4>)
 8000c3c:	681b      	ldr	r3, [r3, #0]
 8000c3e:	ee07 3a90 	vmov	s15, r3
 8000c42:	eeb8 7a67 	vcvt.f32.u32	s14, s15
 8000c46:	eddf 6a16 	vldr	s13, [pc, #88]	; 8000ca0 <main+0xe8>
 8000c4a:	eec6 7a87 	vdiv.f32	s15, s13, s14
 8000c4e:	4b15      	ldr	r3, [pc, #84]	; (8000ca4 <main+0xec>)
 8000c50:	edc3 7a00 	vstr	s15, [r3]
 8000c54:	e003      	b.n	8000c5e <main+0xa6>
    		}else {
    			frequency = 0;
 8000c56:	4b13      	ldr	r3, [pc, #76]	; (8000ca4 <main+0xec>)
 8000c58:	f04f 0200 	mov.w	r2, #0
 8000c5c:	601a      	str	r2, [r3, #0]
    		}
    		printf("frequency = %f\n",frequency);
 8000c5e:	4b11      	ldr	r3, [pc, #68]	; (8000ca4 <main+0xec>)
 8000c60:	681b      	ldr	r3, [r3, #0]
 8000c62:	4618      	mov	r0, r3
 8000c64:	f7ff fc78 	bl	8000558 <__aeabi_f2d>
 8000c68:	4602      	mov	r2, r0
 8000c6a:	460b      	mov	r3, r1
 8000c6c:	480e      	ldr	r0, [pc, #56]	; (8000ca8 <main+0xf0>)
 8000c6e:	f000 febd 	bl	80019ec <iprintf>
    		value1 = 0;
 8000c72:	4b08      	ldr	r3, [pc, #32]	; (8000c94 <main+0xdc>)
 8000c74:	2200      	movs	r2, #0
 8000c76:	601a      	str	r2, [r3, #0]
    		value2 = 0;
 8000c78:	4b07      	ldr	r3, [pc, #28]	; (8000c98 <main+0xe0>)
 8000c7a:	2200      	movs	r2, #0
 8000c7c:	601a      	str	r2, [r3, #0]
    	}
    	CLEAR_BIT(TIM2->SR,TIM_SR_CC1IF);
 8000c7e:	f04f 4380 	mov.w	r3, #1073741824	; 0x40000000
 8000c82:	691b      	ldr	r3, [r3, #16]
 8000c84:	f04f 4280 	mov.w	r2, #1073741824	; 0x40000000
 8000c88:	f023 0302 	bic.w	r3, r3, #2
 8000c8c:	6113      	str	r3, [r2, #16]
    	while(!(READ_BIT(TIM2->SR,TIM_SR_CC1IF))){
 8000c8e:	e79f      	b.n	8000bd0 <main+0x18>
 8000c90:	e000ed00 	.word	0xe000ed00
 8000c94:	200001e4 	.word	0x200001e4
 8000c98:	200001e8 	.word	0x200001e8
 8000c9c:	200001f0 	.word	0x200001f0
 8000ca0:	49742400 	.word	0x49742400
 8000ca4:	200001ec 	.word	0x200001ec
 8000ca8:	08003958 	.word	0x08003958

08000cac <ITM_SendChar>:
/* ITM register addresses */
#define ITM_STIMULUS_PORT0   	*((volatile uint32_t*) 0xE0000000 )
#define ITM_TRACE_EN          	*((volatile uint32_t*) 0xE0000E00 )

void ITM_SendChar(uint8_t ch)
{
 8000cac:	b480      	push	{r7}
 8000cae:	b083      	sub	sp, #12
 8000cb0:	af00      	add	r7, sp, #0
 8000cb2:	4603      	mov	r3, r0
 8000cb4:	71fb      	strb	r3, [r7, #7]

	//Enable TRCENA
	DEMCR |= ( 1 << 24);
 8000cb6:	4b0f      	ldr	r3, [pc, #60]	; (8000cf4 <ITM_SendChar+0x48>)
 8000cb8:	681b      	ldr	r3, [r3, #0]
 8000cba:	4a0e      	ldr	r2, [pc, #56]	; (8000cf4 <ITM_SendChar+0x48>)
 8000cbc:	f043 7380 	orr.w	r3, r3, #16777216	; 0x1000000
 8000cc0:	6013      	str	r3, [r2, #0]

	//enable stimulus port 0
	ITM_TRACE_EN |= ( 1 << 0);
 8000cc2:	4b0d      	ldr	r3, [pc, #52]	; (8000cf8 <ITM_SendChar+0x4c>)
 8000cc4:	681b      	ldr	r3, [r3, #0]
 8000cc6:	4a0c      	ldr	r2, [pc, #48]	; (8000cf8 <ITM_SendChar+0x4c>)
 8000cc8:	f043 0301 	orr.w	r3, r3, #1
 8000ccc:	6013      	str	r3, [r2, #0]

	// read FIFO status in bit [0]:
	while(!(ITM_STIMULUS_PORT0 & 1));
 8000cce:	bf00      	nop
 8000cd0:	f04f 4360 	mov.w	r3, #3758096384	; 0xe0000000
 8000cd4:	681b      	ldr	r3, [r3, #0]
 8000cd6:	f003 0301 	and.w	r3, r3, #1
 8000cda:	2b00      	cmp	r3, #0
 8000cdc:	d0f8      	beq.n	8000cd0 <ITM_SendChar+0x24>

	//Write to ITM stimulus port0
	ITM_STIMULUS_PORT0 = ch;
 8000cde:	f04f 4260 	mov.w	r2, #3758096384	; 0xe0000000
 8000ce2:	79fb      	ldrb	r3, [r7, #7]
 8000ce4:	6013      	str	r3, [r2, #0]
}
 8000ce6:	bf00      	nop
 8000ce8:	370c      	adds	r7, #12
 8000cea:	46bd      	mov	sp, r7
 8000cec:	f85d 7b04 	ldr.w	r7, [sp], #4
 8000cf0:	4770      	bx	lr
 8000cf2:	bf00      	nop
 8000cf4:	e000edfc 	.word	0xe000edfc
 8000cf8:	e0000e00 	.word	0xe0000e00

08000cfc <_getpid>:
void initialise_monitor_handles()
{
}

int _getpid(void)
{
 8000cfc:	b480      	push	{r7}
 8000cfe:	af00      	add	r7, sp, #0
  return 1;
 8000d00:	2301      	movs	r3, #1
}
 8000d02:	4618      	mov	r0, r3
 8000d04:	46bd      	mov	sp, r7
 8000d06:	f85d 7b04 	ldr.w	r7, [sp], #4
 8000d0a:	4770      	bx	lr

08000d0c <_kill>:

int _kill(int pid, int sig)
{
 8000d0c:	b580      	push	{r7, lr}
 8000d0e:	b082      	sub	sp, #8
 8000d10:	af00      	add	r7, sp, #0
 8000d12:	6078      	str	r0, [r7, #4]
 8000d14:	6039      	str	r1, [r7, #0]
  (void)pid;
  (void)sig;
  errno = EINVAL;
 8000d16:	f000 ff11 	bl	8001b3c <__errno>
 8000d1a:	4603      	mov	r3, r0
 8000d1c:	2216      	movs	r2, #22
 8000d1e:	601a      	str	r2, [r3, #0]
  return -1;
 8000d20:	f04f 33ff 	mov.w	r3, #4294967295
}
 8000d24:	4618      	mov	r0, r3
 8000d26:	3708      	adds	r7, #8
 8000d28:	46bd      	mov	sp, r7
 8000d2a:	bd80      	pop	{r7, pc}

08000d2c <_exit>:

void _exit (int status)
{
 8000d2c:	b580      	push	{r7, lr}
 8000d2e:	b082      	sub	sp, #8
 8000d30:	af00      	add	r7, sp, #0
 8000d32:	6078      	str	r0, [r7, #4]
  _kill(status, -1);
 8000d34:	f04f 31ff 	mov.w	r1, #4294967295
 8000d38:	6878      	ldr	r0, [r7, #4]
 8000d3a:	f7ff ffe7 	bl	8000d0c <_kill>
  while (1) {}    /* Make sure we hang here */
 8000d3e:	e7fe      	b.n	8000d3e <_exit+0x12>

08000d40 <_read>:
}

__attribute__((weak)) int _read(int file, char *ptr, int len)
{
 8000d40:	b580      	push	{r7, lr}
 8000d42:	b086      	sub	sp, #24
 8000d44:	af00      	add	r7, sp, #0
 8000d46:	60f8      	str	r0, [r7, #12]
 8000d48:	60b9      	str	r1, [r7, #8]
 8000d4a:	607a      	str	r2, [r7, #4]
  (void)file;
  int DataIdx;

  for (DataIdx = 0; DataIdx < len; DataIdx++)
 8000d4c:	2300      	movs	r3, #0
 8000d4e:	617b      	str	r3, [r7, #20]
 8000d50:	e00a      	b.n	8000d68 <_read+0x28>
  {
    *ptr++ = __io_getchar();
 8000d52:	f3af 8000 	nop.w
 8000d56:	4601      	mov	r1, r0
 8000d58:	68bb      	ldr	r3, [r7, #8]
 8000d5a:	1c5a      	adds	r2, r3, #1
 8000d5c:	60ba      	str	r2, [r7, #8]
 8000d5e:	b2ca      	uxtb	r2, r1
 8000d60:	701a      	strb	r2, [r3, #0]
  for (DataIdx = 0; DataIdx < len; DataIdx++)
 8000d62:	697b      	ldr	r3, [r7, #20]
 8000d64:	3301      	adds	r3, #1
 8000d66:	617b      	str	r3, [r7, #20]
 8000d68:	697a      	ldr	r2, [r7, #20]
 8000d6a:	687b      	ldr	r3, [r7, #4]
 8000d6c:	429a      	cmp	r2, r3
 8000d6e:	dbf0      	blt.n	8000d52 <_read+0x12>
  }

  return len;
 8000d70:	687b      	ldr	r3, [r7, #4]
}
 8000d72:	4618      	mov	r0, r3
 8000d74:	3718      	adds	r7, #24
 8000d76:	46bd      	mov	sp, r7
 8000d78:	bd80      	pop	{r7, pc}

08000d7a <_write>:

__attribute__((weak)) int _write(int file, char *ptr, int len)
{
 8000d7a:	b580      	push	{r7, lr}
 8000d7c:	b086      	sub	sp, #24
 8000d7e:	af00      	add	r7, sp, #0
 8000d80:	60f8      	str	r0, [r7, #12]
 8000d82:	60b9      	str	r1, [r7, #8]
 8000d84:	607a      	str	r2, [r7, #4]
  (void)file;
  int DataIdx;

  for (DataIdx = 0; DataIdx < len; DataIdx++)
 8000d86:	2300      	movs	r3, #0
 8000d88:	617b      	str	r3, [r7, #20]
 8000d8a:	e009      	b.n	8000da0 <_write+0x26>
  {
    //__io_putchar(*ptr++);
	  ITM_SendChar(*ptr++);
 8000d8c:	68bb      	ldr	r3, [r7, #8]
 8000d8e:	1c5a      	adds	r2, r3, #1
 8000d90:	60ba      	str	r2, [r7, #8]
 8000d92:	781b      	ldrb	r3, [r3, #0]
 8000d94:	4618      	mov	r0, r3
 8000d96:	f7ff ff89 	bl	8000cac <ITM_SendChar>
  for (DataIdx = 0; DataIdx < len; DataIdx++)
 8000d9a:	697b      	ldr	r3, [r7, #20]
 8000d9c:	3301      	adds	r3, #1
 8000d9e:	617b      	str	r3, [r7, #20]
 8000da0:	697a      	ldr	r2, [r7, #20]
 8000da2:	687b      	ldr	r3, [r7, #4]
 8000da4:	429a      	cmp	r2, r3
 8000da6:	dbf1      	blt.n	8000d8c <_write+0x12>
  }
  return len;
 8000da8:	687b      	ldr	r3, [r7, #4]
}
 8000daa:	4618      	mov	r0, r3
 8000dac:	3718      	adds	r7, #24
 8000dae:	46bd      	mov	sp, r7
 8000db0:	bd80      	pop	{r7, pc}

08000db2 <_close>:

int _close(int file)
{
 8000db2:	b480      	push	{r7}
 8000db4:	b083      	sub	sp, #12
 8000db6:	af00      	add	r7, sp, #0
 8000db8:	6078      	str	r0, [r7, #4]
  (void)file;
  return -1;
 8000dba:	f04f 33ff 	mov.w	r3, #4294967295
}
 8000dbe:	4618      	mov	r0, r3
 8000dc0:	370c      	adds	r7, #12
 8000dc2:	46bd      	mov	sp, r7
 8000dc4:	f85d 7b04 	ldr.w	r7, [sp], #4
 8000dc8:	4770      	bx	lr

08000dca <_fstat>:


int _fstat(int file, struct stat *st)
{
 8000dca:	b480      	push	{r7}
 8000dcc:	b083      	sub	sp, #12
 8000dce:	af00      	add	r7, sp, #0
 8000dd0:	6078      	str	r0, [r7, #4]
 8000dd2:	6039      	str	r1, [r7, #0]
  (void)file;
  st->st_mode = S_IFCHR;
 8000dd4:	683b      	ldr	r3, [r7, #0]
 8000dd6:	f44f 5200 	mov.w	r2, #8192	; 0x2000
 8000dda:	605a      	str	r2, [r3, #4]
  return 0;
 8000ddc:	2300      	movs	r3, #0
}
 8000dde:	4618      	mov	r0, r3
 8000de0:	370c      	adds	r7, #12
 8000de2:	46bd      	mov	sp, r7
 8000de4:	f85d 7b04 	ldr.w	r7, [sp], #4
 8000de8:	4770      	bx	lr

08000dea <_isatty>:

int _isatty(int file)
{
 8000dea:	b480      	push	{r7}
 8000dec:	b083      	sub	sp, #12
 8000dee:	af00      	add	r7, sp, #0
 8000df0:	6078      	str	r0, [r7, #4]
  (void)file;
  return 1;
 8000df2:	2301      	movs	r3, #1
}
 8000df4:	4618      	mov	r0, r3
 8000df6:	370c      	adds	r7, #12
 8000df8:	46bd      	mov	sp, r7
 8000dfa:	f85d 7b04 	ldr.w	r7, [sp], #4
 8000dfe:	4770      	bx	lr

08000e00 <_lseek>:

int _lseek(int file, int ptr, int dir)
{
 8000e00:	b480      	push	{r7}
 8000e02:	b085      	sub	sp, #20
 8000e04:	af00      	add	r7, sp, #0
 8000e06:	60f8      	str	r0, [r7, #12]
 8000e08:	60b9      	str	r1, [r7, #8]
 8000e0a:	607a      	str	r2, [r7, #4]
  (void)file;
  (void)ptr;
  (void)dir;
  return 0;
 8000e0c:	2300      	movs	r3, #0
}
 8000e0e:	4618      	mov	r0, r3
 8000e10:	3714      	adds	r7, #20
 8000e12:	46bd      	mov	sp, r7
 8000e14:	f85d 7b04 	ldr.w	r7, [sp], #4
 8000e18:	4770      	bx	lr
	...

08000e1c <_sbrk>:
 *
 * @param incr Memory size
 * @return Pointer to allocated memory
 */
void *_sbrk(ptrdiff_t incr)
{
 8000e1c:	b580      	push	{r7, lr}
 8000e1e:	b086      	sub	sp, #24
 8000e20:	af00      	add	r7, sp, #0
 8000e22:	6078      	str	r0, [r7, #4]
  extern uint8_t _end; /* Symbol defined in the linker script */
  extern uint8_t _estack; /* Symbol defined in the linker script */
  extern uint32_t _Min_Stack_Size; /* Symbol defined in the linker script */
  const uint32_t stack_limit = (uint32_t)&_estack - (uint32_t)&_Min_Stack_Size;
 8000e24:	4a14      	ldr	r2, [pc, #80]	; (8000e78 <_sbrk+0x5c>)
 8000e26:	4b15      	ldr	r3, [pc, #84]	; (8000e7c <_sbrk+0x60>)
 8000e28:	1ad3      	subs	r3, r2, r3
 8000e2a:	617b      	str	r3, [r7, #20]
  const uint8_t *max_heap = (uint8_t *)stack_limit;
 8000e2c:	697b      	ldr	r3, [r7, #20]
 8000e2e:	613b      	str	r3, [r7, #16]
  uint8_t *prev_heap_end;

  /* Initialize heap end at first call */
  if (NULL == __sbrk_heap_end)
 8000e30:	4b13      	ldr	r3, [pc, #76]	; (8000e80 <_sbrk+0x64>)
 8000e32:	681b      	ldr	r3, [r3, #0]
 8000e34:	2b00      	cmp	r3, #0
 8000e36:	d102      	bne.n	8000e3e <_sbrk+0x22>
  {
    __sbrk_heap_end = &_end;
 8000e38:	4b11      	ldr	r3, [pc, #68]	; (8000e80 <_sbrk+0x64>)
 8000e3a:	4a12      	ldr	r2, [pc, #72]	; (8000e84 <_sbrk+0x68>)
 8000e3c:	601a      	str	r2, [r3, #0]
  }

  /* Protect heap from growing into the reserved MSP stack */
  if (__sbrk_heap_end + incr > max_heap)
 8000e3e:	4b10      	ldr	r3, [pc, #64]	; (8000e80 <_sbrk+0x64>)
 8000e40:	681a      	ldr	r2, [r3, #0]
 8000e42:	687b      	ldr	r3, [r7, #4]
 8000e44:	4413      	add	r3, r2
 8000e46:	693a      	ldr	r2, [r7, #16]
 8000e48:	429a      	cmp	r2, r3
 8000e4a:	d207      	bcs.n	8000e5c <_sbrk+0x40>
  {
    errno = ENOMEM;
 8000e4c:	f000 fe76 	bl	8001b3c <__errno>
 8000e50:	4603      	mov	r3, r0
 8000e52:	220c      	movs	r2, #12
 8000e54:	601a      	str	r2, [r3, #0]
    return (void *)-1;
 8000e56:	f04f 33ff 	mov.w	r3, #4294967295
 8000e5a:	e009      	b.n	8000e70 <_sbrk+0x54>
  }

  prev_heap_end = __sbrk_heap_end;
 8000e5c:	4b08      	ldr	r3, [pc, #32]	; (8000e80 <_sbrk+0x64>)
 8000e5e:	681b      	ldr	r3, [r3, #0]
 8000e60:	60fb      	str	r3, [r7, #12]
  __sbrk_heap_end += incr;
 8000e62:	4b07      	ldr	r3, [pc, #28]	; (8000e80 <_sbrk+0x64>)
 8000e64:	681a      	ldr	r2, [r3, #0]
 8000e66:	687b      	ldr	r3, [r7, #4]
 8000e68:	4413      	add	r3, r2
 8000e6a:	4a05      	ldr	r2, [pc, #20]	; (8000e80 <_sbrk+0x64>)
 8000e6c:	6013      	str	r3, [r2, #0]

  return (void *)prev_heap_end;
 8000e6e:	68fb      	ldr	r3, [r7, #12]
}
 8000e70:	4618      	mov	r0, r3
 8000e72:	3718      	adds	r7, #24
 8000e74:	46bd      	mov	sp, r7
 8000e76:	bd80      	pop	{r7, pc}
 8000e78:	20018000 	.word	0x20018000
 8000e7c:	00000400 	.word	0x00000400
 8000e80:	200001f4 	.word	0x200001f4
 8000e84:	20000348 	.word	0x20000348

08000e88 <tim2_pa5_input_capture>:


}

void tim2_pa5_input_capture(void)
{
 8000e88:	b480      	push	{r7}
 8000e8a:	af00      	add	r7, sp, #0
	/* Accesso al clock per GPIOA */
	SET_BIT(RCC->AHB1ENR, RCC_AHB1ENR_GPIOAEN);
 8000e8c:	4b2b      	ldr	r3, [pc, #172]	; (8000f3c <tim2_pa5_input_capture+0xb4>)
 8000e8e:	6b1b      	ldr	r3, [r3, #48]	; 0x30
 8000e90:	4a2a      	ldr	r2, [pc, #168]	; (8000f3c <tim2_pa5_input_capture+0xb4>)
 8000e92:	f043 0301 	orr.w	r3, r3, #1
 8000e96:	6313      	str	r3, [r2, #48]	; 0x30

	/* Imposto PA5 per alternate function */
	MODIFY_REG(GPIOA->MODER, GPIO_MODER_MODER5, (2U << GPIO_MODER_MODER5_Pos));
 8000e98:	4b29      	ldr	r3, [pc, #164]	; (8000f40 <tim2_pa5_input_capture+0xb8>)
 8000e9a:	681b      	ldr	r3, [r3, #0]
 8000e9c:	f423 6340 	bic.w	r3, r3, #3072	; 0xc00
 8000ea0:	4a27      	ldr	r2, [pc, #156]	; (8000f40 <tim2_pa5_input_capture+0xb8>)
 8000ea2:	f443 6300 	orr.w	r3, r3, #2048	; 0x800
 8000ea6:	6013      	str	r3, [r2, #0]

	/* Configuro alternate function 01 (TIM2_CH1) */
	MODIFY_REG(GPIOA->AFR[0], GPIO_AFRL_AFSEL5, (1U << GPIO_AFRL_AFSEL5_Pos));
 8000ea8:	4b25      	ldr	r3, [pc, #148]	; (8000f40 <tim2_pa5_input_capture+0xb8>)
 8000eaa:	6a1b      	ldr	r3, [r3, #32]
 8000eac:	f423 0370 	bic.w	r3, r3, #15728640	; 0xf00000
 8000eb0:	4a23      	ldr	r2, [pc, #140]	; (8000f40 <tim2_pa5_input_capture+0xb8>)
 8000eb2:	f443 1380 	orr.w	r3, r3, #1048576	; 0x100000
 8000eb6:	6213      	str	r3, [r2, #32]

	/* Accesso TIM2 al clock */
	SET_BIT(RCC->APB1ENR, RCC_APB1ENR_TIM2EN);
 8000eb8:	4b20      	ldr	r3, [pc, #128]	; (8000f3c <tim2_pa5_input_capture+0xb4>)
 8000eba:	6c1b      	ldr	r3, [r3, #64]	; 0x40
 8000ebc:	4a1f      	ldr	r2, [pc, #124]	; (8000f3c <tim2_pa5_input_capture+0xb4>)
 8000ebe:	f043 0301 	orr.w	r3, r3, #1
 8000ec2:	6413      	str	r3, [r2, #64]	; 0x40

	/* Prescaler per avere clock a 1 MHz (1us) */
	//TIM2->PSC = 16U - 1; // 16 000 000/16 = 1 000 000

	/* Connetto TI1 a CCR1 in input mode */
	MODIFY_REG(TIM2->CCMR1, TIM_CCMR1_CC1S, (1U << TIM_CCMR1_CC1S_Pos));
 8000ec4:	f04f 4380 	mov.w	r3, #1073741824	; 0x40000000
 8000ec8:	699b      	ldr	r3, [r3, #24]
 8000eca:	f023 0303 	bic.w	r3, r3, #3
 8000ece:	f04f 4280 	mov.w	r2, #1073741824	; 0x40000000
 8000ed2:	f043 0301 	orr.w	r3, r3, #1
 8000ed6:	6193      	str	r3, [r2, #24]

	/* Seleziono rising edge */
	CLEAR_BIT(TIM2->CCER, TIM_CCER_CC1P);
 8000ed8:	f04f 4380 	mov.w	r3, #1073741824	; 0x40000000
 8000edc:	6a1b      	ldr	r3, [r3, #32]
 8000ede:	f04f 4280 	mov.w	r2, #1073741824	; 0x40000000
 8000ee2:	f023 0302 	bic.w	r3, r3, #2
 8000ee6:	6213      	str	r3, [r2, #32]
	CLEAR_BIT(TIM2->CCER, TIM_CCER_CC1NP);
 8000ee8:	f04f 4380 	mov.w	r3, #1073741824	; 0x40000000
 8000eec:	6a1b      	ldr	r3, [r3, #32]
 8000eee:	f04f 4280 	mov.w	r2, #1073741824	; 0x40000000
 8000ef2:	f023 0308 	bic.w	r3, r3, #8
 8000ef6:	6213      	str	r3, [r2, #32]

	/* Capture enable */
	SET_BIT(TIM2->CCER, TIM_CCER_CC1E);
 8000ef8:	f04f 4380 	mov.w	r3, #1073741824	; 0x40000000
 8000efc:	6a1b      	ldr	r3, [r3, #32]
 8000efe:	f04f 4280 	mov.w	r2, #1073741824	; 0x40000000
 8000f02:	f043 0301 	orr.w	r3, r3, #1
 8000f06:	6213      	str	r3, [r2, #32]


	/* Timer enable */
	SET_BIT(TIM2->CR1, TIM_CR1_CEN);
 8000f08:	f04f 4380 	mov.w	r3, #1073741824	; 0x40000000
 8000f0c:	681b      	ldr	r3, [r3, #0]
 8000f0e:	f04f 4280 	mov.w	r2, #1073741824	; 0x40000000
 8000f12:	f043 0301 	orr.w	r3, r3, #1
 8000f16:	6013      	str	r3, [r2, #0]
	SET_BIT(TIM5->DIER,TIM_DIER_UIE);
 8000f18:	4b0a      	ldr	r3, [pc, #40]	; (8000f44 <tim2_pa5_input_capture+0xbc>)
 8000f1a:	68db      	ldr	r3, [r3, #12]
 8000f1c:	4a09      	ldr	r2, [pc, #36]	; (8000f44 <tim2_pa5_input_capture+0xbc>)
 8000f1e:	f043 0301 	orr.w	r3, r3, #1
 8000f22:	60d3      	str	r3, [r2, #12]
	SET_BIT(TIM5->DIER,TIM_DIER_CC1IE);
 8000f24:	4b07      	ldr	r3, [pc, #28]	; (8000f44 <tim2_pa5_input_capture+0xbc>)
 8000f26:	68db      	ldr	r3, [r3, #12]
 8000f28:	4a06      	ldr	r2, [pc, #24]	; (8000f44 <tim2_pa5_input_capture+0xbc>)
 8000f2a:	f043 0302 	orr.w	r3, r3, #2
 8000f2e:	60d3      	str	r3, [r2, #12]

}
 8000f30:	bf00      	nop
 8000f32:	46bd      	mov	sp, r7
 8000f34:	f85d 7b04 	ldr.w	r7, [sp], #4
 8000f38:	4770      	bx	lr
 8000f3a:	bf00      	nop
 8000f3c:	40023800 	.word	0x40023800
 8000f40:	40020000 	.word	0x40020000
 8000f44:	40000c00 	.word	0x40000c00

08000f48 <Reset_Handler>:

  .section .text.Reset_Handler
  .weak Reset_Handler
  .type Reset_Handler, %function
Reset_Handler:
  ldr   r0, =_estack
 8000f48:	480d      	ldr	r0, [pc, #52]	; (8000f80 <LoopForever+0x2>)
  mov   sp, r0          /* set stack pointer */
 8000f4a:	4685      	mov	sp, r0
/* Call the clock system initialization function.*/
  bl  SystemInit
 8000f4c:	f3af 8000 	nop.w

/* Copy the data segment initializers from flash to SRAM */
  ldr r0, =_sdata
 8000f50:	480c      	ldr	r0, [pc, #48]	; (8000f84 <LoopForever+0x6>)
  ldr r1, =_edata
 8000f52:	490d      	ldr	r1, [pc, #52]	; (8000f88 <LoopForever+0xa>)
  ldr r2, =_sidata
 8000f54:	4a0d      	ldr	r2, [pc, #52]	; (8000f8c <LoopForever+0xe>)
  movs r3, #0
 8000f56:	2300      	movs	r3, #0
  b LoopCopyDataInit
 8000f58:	e002      	b.n	8000f60 <LoopCopyDataInit>

08000f5a <CopyDataInit>:

CopyDataInit:
  ldr r4, [r2, r3]
 8000f5a:	58d4      	ldr	r4, [r2, r3]
  str r4, [r0, r3]
 8000f5c:	50c4      	str	r4, [r0, r3]
  adds r3, r3, #4
 8000f5e:	3304      	adds	r3, #4

08000f60 <LoopCopyDataInit>:

LoopCopyDataInit:
  adds r4, r0, r3
 8000f60:	18c4      	adds	r4, r0, r3
  cmp r4, r1
 8000f62:	428c      	cmp	r4, r1
  bcc CopyDataInit
 8000f64:	d3f9      	bcc.n	8000f5a <CopyDataInit>

/* Zero fill the bss segment. */
  ldr r2, =_sbss
 8000f66:	4a0a      	ldr	r2, [pc, #40]	; (8000f90 <LoopForever+0x12>)
  ldr r4, =_ebss
 8000f68:	4c0a      	ldr	r4, [pc, #40]	; (8000f94 <LoopForever+0x16>)
  movs r3, #0
 8000f6a:	2300      	movs	r3, #0
  b LoopFillZerobss
 8000f6c:	e001      	b.n	8000f72 <LoopFillZerobss>

08000f6e <FillZerobss>:

FillZerobss:
  str  r3, [r2]
 8000f6e:	6013      	str	r3, [r2, #0]
  adds r2, r2, #4
 8000f70:	3204      	adds	r2, #4

08000f72 <LoopFillZerobss>:

LoopFillZerobss:
  cmp r2, r4
 8000f72:	42a2      	cmp	r2, r4
  bcc FillZerobss
 8000f74:	d3fb      	bcc.n	8000f6e <FillZerobss>

/* Call static constructors */
  bl __libc_init_array
 8000f76:	f000 fde7 	bl	8001b48 <__libc_init_array>
/* Call the application's entry point.*/
  bl main
 8000f7a:	f7ff fe1d 	bl	8000bb8 <main>

08000f7e <LoopForever>:

LoopForever:
  b LoopForever
 8000f7e:	e7fe      	b.n	8000f7e <LoopForever>
  ldr   r0, =_estack
 8000f80:	20018000 	.word	0x20018000
  ldr r0, =_sdata
 8000f84:	20000000 	.word	0x20000000
  ldr r1, =_edata
 8000f88:	200001c8 	.word	0x200001c8
  ldr r2, =_sidata
 8000f8c:	08003ce4 	.word	0x08003ce4
  ldr r2, =_sbss
 8000f90:	200001c8 	.word	0x200001c8
  ldr r4, =_ebss
 8000f94:	20000344 	.word	0x20000344

08000f98 <ADC_IRQHandler>:
 * @retval : None
*/
  .section .text.Default_Handler,"ax",%progbits
Default_Handler:
Infinite_Loop:
  b Infinite_Loop
 8000f98:	e7fe      	b.n	8000f98 <ADC_IRQHandler>

08000f9a <__cvt>:
 8000f9a:	e92d 47ff 	stmdb	sp!, {r0, r1, r2, r3, r4, r5, r6, r7, r8, r9, sl, lr}
 8000f9e:	ec55 4b10 	vmov	r4, r5, d0
 8000fa2:	2d00      	cmp	r5, #0
 8000fa4:	460e      	mov	r6, r1
 8000fa6:	4619      	mov	r1, r3
 8000fa8:	462b      	mov	r3, r5
 8000faa:	bfbb      	ittet	lt
 8000fac:	f105 4300 	addlt.w	r3, r5, #2147483648	; 0x80000000
 8000fb0:	461d      	movlt	r5, r3
 8000fb2:	2300      	movge	r3, #0
 8000fb4:	232d      	movlt	r3, #45	; 0x2d
 8000fb6:	700b      	strb	r3, [r1, #0]
 8000fb8:	9b0d      	ldr	r3, [sp, #52]	; 0x34
 8000fba:	f8dd a030 	ldr.w	sl, [sp, #48]	; 0x30
 8000fbe:	4691      	mov	r9, r2
 8000fc0:	f023 0820 	bic.w	r8, r3, #32
 8000fc4:	bfbc      	itt	lt
 8000fc6:	4622      	movlt	r2, r4
 8000fc8:	4614      	movlt	r4, r2
 8000fca:	f1b8 0f46 	cmp.w	r8, #70	; 0x46
 8000fce:	d005      	beq.n	8000fdc <__cvt+0x42>
 8000fd0:	f1b8 0f45 	cmp.w	r8, #69	; 0x45
 8000fd4:	d100      	bne.n	8000fd8 <__cvt+0x3e>
 8000fd6:	3601      	adds	r6, #1
 8000fd8:	2102      	movs	r1, #2
 8000fda:	e000      	b.n	8000fde <__cvt+0x44>
 8000fdc:	2103      	movs	r1, #3
 8000fde:	ab03      	add	r3, sp, #12
 8000fe0:	9301      	str	r3, [sp, #4]
 8000fe2:	ab02      	add	r3, sp, #8
 8000fe4:	9300      	str	r3, [sp, #0]
 8000fe6:	ec45 4b10 	vmov	d0, r4, r5
 8000fea:	4653      	mov	r3, sl
 8000fec:	4632      	mov	r2, r6
 8000fee:	f000 fe5b 	bl	8001ca8 <_dtoa_r>
 8000ff2:	f1b8 0f47 	cmp.w	r8, #71	; 0x47
 8000ff6:	4607      	mov	r7, r0
 8000ff8:	d102      	bne.n	8001000 <__cvt+0x66>
 8000ffa:	f019 0f01 	tst.w	r9, #1
 8000ffe:	d022      	beq.n	8001046 <__cvt+0xac>
 8001000:	f1b8 0f46 	cmp.w	r8, #70	; 0x46
 8001004:	eb07 0906 	add.w	r9, r7, r6
 8001008:	d110      	bne.n	800102c <__cvt+0x92>
 800100a:	783b      	ldrb	r3, [r7, #0]
 800100c:	2b30      	cmp	r3, #48	; 0x30
 800100e:	d10a      	bne.n	8001026 <__cvt+0x8c>
 8001010:	2200      	movs	r2, #0
 8001012:	2300      	movs	r3, #0
 8001014:	4620      	mov	r0, r4
 8001016:	4629      	mov	r1, r5
 8001018:	f7ff fd5e 	bl	8000ad8 <__aeabi_dcmpeq>
 800101c:	b918      	cbnz	r0, 8001026 <__cvt+0x8c>
 800101e:	f1c6 0601 	rsb	r6, r6, #1
 8001022:	f8ca 6000 	str.w	r6, [sl]
 8001026:	f8da 3000 	ldr.w	r3, [sl]
 800102a:	4499      	add	r9, r3
 800102c:	2200      	movs	r2, #0
 800102e:	2300      	movs	r3, #0
 8001030:	4620      	mov	r0, r4
 8001032:	4629      	mov	r1, r5
 8001034:	f7ff fd50 	bl	8000ad8 <__aeabi_dcmpeq>
 8001038:	b108      	cbz	r0, 800103e <__cvt+0xa4>
 800103a:	f8cd 900c 	str.w	r9, [sp, #12]
 800103e:	2230      	movs	r2, #48	; 0x30
 8001040:	9b03      	ldr	r3, [sp, #12]
 8001042:	454b      	cmp	r3, r9
 8001044:	d307      	bcc.n	8001056 <__cvt+0xbc>
 8001046:	9b03      	ldr	r3, [sp, #12]
 8001048:	9a0e      	ldr	r2, [sp, #56]	; 0x38
 800104a:	1bdb      	subs	r3, r3, r7
 800104c:	4638      	mov	r0, r7
 800104e:	6013      	str	r3, [r2, #0]
 8001050:	b004      	add	sp, #16
 8001052:	e8bd 87f0 	ldmia.w	sp!, {r4, r5, r6, r7, r8, r9, sl, pc}
 8001056:	1c59      	adds	r1, r3, #1
 8001058:	9103      	str	r1, [sp, #12]
 800105a:	701a      	strb	r2, [r3, #0]
 800105c:	e7f0      	b.n	8001040 <__cvt+0xa6>

0800105e <__exponent>:
 800105e:	b5f7      	push	{r0, r1, r2, r4, r5, r6, r7, lr}
 8001060:	4603      	mov	r3, r0
 8001062:	2900      	cmp	r1, #0
 8001064:	bfb8      	it	lt
 8001066:	4249      	neglt	r1, r1
 8001068:	f803 2b02 	strb.w	r2, [r3], #2
 800106c:	bfb4      	ite	lt
 800106e:	222d      	movlt	r2, #45	; 0x2d
 8001070:	222b      	movge	r2, #43	; 0x2b
 8001072:	2909      	cmp	r1, #9
 8001074:	7042      	strb	r2, [r0, #1]
 8001076:	dd2a      	ble.n	80010ce <__exponent+0x70>
 8001078:	f10d 0207 	add.w	r2, sp, #7
 800107c:	4617      	mov	r7, r2
 800107e:	260a      	movs	r6, #10
 8001080:	4694      	mov	ip, r2
 8001082:	fb91 f5f6 	sdiv	r5, r1, r6
 8001086:	fb06 1415 	mls	r4, r6, r5, r1
 800108a:	3430      	adds	r4, #48	; 0x30
 800108c:	f80c 4c01 	strb.w	r4, [ip, #-1]
 8001090:	460c      	mov	r4, r1
 8001092:	2c63      	cmp	r4, #99	; 0x63
 8001094:	f102 32ff 	add.w	r2, r2, #4294967295
 8001098:	4629      	mov	r1, r5
 800109a:	dcf1      	bgt.n	8001080 <__exponent+0x22>
 800109c:	3130      	adds	r1, #48	; 0x30
 800109e:	f1ac 0402 	sub.w	r4, ip, #2
 80010a2:	f802 1c01 	strb.w	r1, [r2, #-1]
 80010a6:	1c41      	adds	r1, r0, #1
 80010a8:	4622      	mov	r2, r4
 80010aa:	42ba      	cmp	r2, r7
 80010ac:	d30a      	bcc.n	80010c4 <__exponent+0x66>
 80010ae:	f10d 0209 	add.w	r2, sp, #9
 80010b2:	eba2 020c 	sub.w	r2, r2, ip
 80010b6:	42bc      	cmp	r4, r7
 80010b8:	bf88      	it	hi
 80010ba:	2200      	movhi	r2, #0
 80010bc:	4413      	add	r3, r2
 80010be:	1a18      	subs	r0, r3, r0
 80010c0:	b003      	add	sp, #12
 80010c2:	bdf0      	pop	{r4, r5, r6, r7, pc}
 80010c4:	f812 5b01 	ldrb.w	r5, [r2], #1
 80010c8:	f801 5f01 	strb.w	r5, [r1, #1]!
 80010cc:	e7ed      	b.n	80010aa <__exponent+0x4c>
 80010ce:	2330      	movs	r3, #48	; 0x30
 80010d0:	3130      	adds	r1, #48	; 0x30
 80010d2:	7083      	strb	r3, [r0, #2]
 80010d4:	70c1      	strb	r1, [r0, #3]
 80010d6:	1d03      	adds	r3, r0, #4
 80010d8:	e7f1      	b.n	80010be <__exponent+0x60>
	...

080010dc <_printf_float>:
 80010dc:	e92d 4ff0 	stmdb	sp!, {r4, r5, r6, r7, r8, r9, sl, fp, lr}
 80010e0:	ed2d 8b02 	vpush	{d8}
 80010e4:	b08d      	sub	sp, #52	; 0x34
 80010e6:	460c      	mov	r4, r1
 80010e8:	f8dd 8060 	ldr.w	r8, [sp, #96]	; 0x60
 80010ec:	4616      	mov	r6, r2
 80010ee:	461f      	mov	r7, r3
 80010f0:	4605      	mov	r5, r0
 80010f2:	f000 fcd9 	bl	8001aa8 <_localeconv_r>
 80010f6:	f8d0 a000 	ldr.w	sl, [r0]
 80010fa:	4650      	mov	r0, sl
 80010fc:	f7ff f8c0 	bl	8000280 <strlen>
 8001100:	2300      	movs	r3, #0
 8001102:	930a      	str	r3, [sp, #40]	; 0x28
 8001104:	6823      	ldr	r3, [r4, #0]
 8001106:	9305      	str	r3, [sp, #20]
 8001108:	f8d8 3000 	ldr.w	r3, [r8]
 800110c:	f894 b018 	ldrb.w	fp, [r4, #24]
 8001110:	3307      	adds	r3, #7
 8001112:	f023 0307 	bic.w	r3, r3, #7
 8001116:	f103 0208 	add.w	r2, r3, #8
 800111a:	f8c8 2000 	str.w	r2, [r8]
 800111e:	e9d3 8900 	ldrd	r8, r9, [r3]
 8001122:	f029 4300 	bic.w	r3, r9, #2147483648	; 0x80000000
 8001126:	9307      	str	r3, [sp, #28]
 8001128:	f8cd 8018 	str.w	r8, [sp, #24]
 800112c:	ee08 0a10 	vmov	s16, r0
 8001130:	e9c4 8912 	strd	r8, r9, [r4, #72]	; 0x48
 8001134:	e9dd 0106 	ldrd	r0, r1, [sp, #24]
 8001138:	4b9e      	ldr	r3, [pc, #632]	; (80013b4 <_printf_float+0x2d8>)
 800113a:	f04f 32ff 	mov.w	r2, #4294967295
 800113e:	f7ff fcfd 	bl	8000b3c <__aeabi_dcmpun>
 8001142:	bb88      	cbnz	r0, 80011a8 <_printf_float+0xcc>
 8001144:	e9dd 0106 	ldrd	r0, r1, [sp, #24]
 8001148:	4b9a      	ldr	r3, [pc, #616]	; (80013b4 <_printf_float+0x2d8>)
 800114a:	f04f 32ff 	mov.w	r2, #4294967295
 800114e:	f7ff fcd7 	bl	8000b00 <__aeabi_dcmple>
 8001152:	bb48      	cbnz	r0, 80011a8 <_printf_float+0xcc>
 8001154:	2200      	movs	r2, #0
 8001156:	2300      	movs	r3, #0
 8001158:	4640      	mov	r0, r8
 800115a:	4649      	mov	r1, r9
 800115c:	f7ff fcc6 	bl	8000aec <__aeabi_dcmplt>
 8001160:	b110      	cbz	r0, 8001168 <_printf_float+0x8c>
 8001162:	232d      	movs	r3, #45	; 0x2d
 8001164:	f884 3043 	strb.w	r3, [r4, #67]	; 0x43
 8001168:	4a93      	ldr	r2, [pc, #588]	; (80013b8 <_printf_float+0x2dc>)
 800116a:	4b94      	ldr	r3, [pc, #592]	; (80013bc <_printf_float+0x2e0>)
 800116c:	f1bb 0f47 	cmp.w	fp, #71	; 0x47
 8001170:	bf94      	ite	ls
 8001172:	4690      	movls	r8, r2
 8001174:	4698      	movhi	r8, r3
 8001176:	2303      	movs	r3, #3
 8001178:	6123      	str	r3, [r4, #16]
 800117a:	9b05      	ldr	r3, [sp, #20]
 800117c:	f023 0304 	bic.w	r3, r3, #4
 8001180:	6023      	str	r3, [r4, #0]
 8001182:	f04f 0900 	mov.w	r9, #0
 8001186:	9700      	str	r7, [sp, #0]
 8001188:	4633      	mov	r3, r6
 800118a:	aa0b      	add	r2, sp, #44	; 0x2c
 800118c:	4621      	mov	r1, r4
 800118e:	4628      	mov	r0, r5
 8001190:	f000 f9da 	bl	8001548 <_printf_common>
 8001194:	3001      	adds	r0, #1
 8001196:	f040 8090 	bne.w	80012ba <_printf_float+0x1de>
 800119a:	f04f 30ff 	mov.w	r0, #4294967295
 800119e:	b00d      	add	sp, #52	; 0x34
 80011a0:	ecbd 8b02 	vpop	{d8}
 80011a4:	e8bd 8ff0 	ldmia.w	sp!, {r4, r5, r6, r7, r8, r9, sl, fp, pc}
 80011a8:	4642      	mov	r2, r8
 80011aa:	464b      	mov	r3, r9
 80011ac:	4640      	mov	r0, r8
 80011ae:	4649      	mov	r1, r9
 80011b0:	f7ff fcc4 	bl	8000b3c <__aeabi_dcmpun>
 80011b4:	b140      	cbz	r0, 80011c8 <_printf_float+0xec>
 80011b6:	464b      	mov	r3, r9
 80011b8:	2b00      	cmp	r3, #0
 80011ba:	bfbc      	itt	lt
 80011bc:	232d      	movlt	r3, #45	; 0x2d
 80011be:	f884 3043 	strblt.w	r3, [r4, #67]	; 0x43
 80011c2:	4a7f      	ldr	r2, [pc, #508]	; (80013c0 <_printf_float+0x2e4>)
 80011c4:	4b7f      	ldr	r3, [pc, #508]	; (80013c4 <_printf_float+0x2e8>)
 80011c6:	e7d1      	b.n	800116c <_printf_float+0x90>
 80011c8:	6863      	ldr	r3, [r4, #4]
 80011ca:	f00b 02df 	and.w	r2, fp, #223	; 0xdf
 80011ce:	9206      	str	r2, [sp, #24]
 80011d0:	1c5a      	adds	r2, r3, #1
 80011d2:	d13f      	bne.n	8001254 <_printf_float+0x178>
 80011d4:	2306      	movs	r3, #6
 80011d6:	6063      	str	r3, [r4, #4]
 80011d8:	9b05      	ldr	r3, [sp, #20]
 80011da:	6861      	ldr	r1, [r4, #4]
 80011dc:	f443 6280 	orr.w	r2, r3, #1024	; 0x400
 80011e0:	2300      	movs	r3, #0
 80011e2:	9303      	str	r3, [sp, #12]
 80011e4:	ab0a      	add	r3, sp, #40	; 0x28
 80011e6:	e9cd b301 	strd	fp, r3, [sp, #4]
 80011ea:	ab09      	add	r3, sp, #36	; 0x24
 80011ec:	ec49 8b10 	vmov	d0, r8, r9
 80011f0:	9300      	str	r3, [sp, #0]
 80011f2:	6022      	str	r2, [r4, #0]
 80011f4:	f10d 0323 	add.w	r3, sp, #35	; 0x23
 80011f8:	4628      	mov	r0, r5
 80011fa:	f7ff fece 	bl	8000f9a <__cvt>
 80011fe:	9b06      	ldr	r3, [sp, #24]
 8001200:	9909      	ldr	r1, [sp, #36]	; 0x24
 8001202:	2b47      	cmp	r3, #71	; 0x47
 8001204:	4680      	mov	r8, r0
 8001206:	d108      	bne.n	800121a <_printf_float+0x13e>
 8001208:	1cc8      	adds	r0, r1, #3
 800120a:	db02      	blt.n	8001212 <_printf_float+0x136>
 800120c:	6863      	ldr	r3, [r4, #4]
 800120e:	4299      	cmp	r1, r3
 8001210:	dd41      	ble.n	8001296 <_printf_float+0x1ba>
 8001212:	f1ab 0302 	sub.w	r3, fp, #2
 8001216:	fa5f fb83 	uxtb.w	fp, r3
 800121a:	f1bb 0f65 	cmp.w	fp, #101	; 0x65
 800121e:	d820      	bhi.n	8001262 <_printf_float+0x186>
 8001220:	3901      	subs	r1, #1
 8001222:	465a      	mov	r2, fp
 8001224:	f104 0050 	add.w	r0, r4, #80	; 0x50
 8001228:	9109      	str	r1, [sp, #36]	; 0x24
 800122a:	f7ff ff18 	bl	800105e <__exponent>
 800122e:	9a0a      	ldr	r2, [sp, #40]	; 0x28
 8001230:	1813      	adds	r3, r2, r0
 8001232:	2a01      	cmp	r2, #1
 8001234:	4681      	mov	r9, r0
 8001236:	6123      	str	r3, [r4, #16]
 8001238:	dc02      	bgt.n	8001240 <_printf_float+0x164>
 800123a:	6822      	ldr	r2, [r4, #0]
 800123c:	07d2      	lsls	r2, r2, #31
 800123e:	d501      	bpl.n	8001244 <_printf_float+0x168>
 8001240:	3301      	adds	r3, #1
 8001242:	6123      	str	r3, [r4, #16]
 8001244:	f89d 3023 	ldrb.w	r3, [sp, #35]	; 0x23
 8001248:	2b00      	cmp	r3, #0
 800124a:	d09c      	beq.n	8001186 <_printf_float+0xaa>
 800124c:	232d      	movs	r3, #45	; 0x2d
 800124e:	f884 3043 	strb.w	r3, [r4, #67]	; 0x43
 8001252:	e798      	b.n	8001186 <_printf_float+0xaa>
 8001254:	9a06      	ldr	r2, [sp, #24]
 8001256:	2a47      	cmp	r2, #71	; 0x47
 8001258:	d1be      	bne.n	80011d8 <_printf_float+0xfc>
 800125a:	2b00      	cmp	r3, #0
 800125c:	d1bc      	bne.n	80011d8 <_printf_float+0xfc>
 800125e:	2301      	movs	r3, #1
 8001260:	e7b9      	b.n	80011d6 <_printf_float+0xfa>
 8001262:	f1bb 0f66 	cmp.w	fp, #102	; 0x66
 8001266:	d118      	bne.n	800129a <_printf_float+0x1be>
 8001268:	2900      	cmp	r1, #0
 800126a:	6863      	ldr	r3, [r4, #4]
 800126c:	dd0b      	ble.n	8001286 <_printf_float+0x1aa>
 800126e:	6121      	str	r1, [r4, #16]
 8001270:	b913      	cbnz	r3, 8001278 <_printf_float+0x19c>
 8001272:	6822      	ldr	r2, [r4, #0]
 8001274:	07d0      	lsls	r0, r2, #31
 8001276:	d502      	bpl.n	800127e <_printf_float+0x1a2>
 8001278:	3301      	adds	r3, #1
 800127a:	440b      	add	r3, r1
 800127c:	6123      	str	r3, [r4, #16]
 800127e:	65a1      	str	r1, [r4, #88]	; 0x58
 8001280:	f04f 0900 	mov.w	r9, #0
 8001284:	e7de      	b.n	8001244 <_printf_float+0x168>
 8001286:	b913      	cbnz	r3, 800128e <_printf_float+0x1b2>
 8001288:	6822      	ldr	r2, [r4, #0]
 800128a:	07d2      	lsls	r2, r2, #31
 800128c:	d501      	bpl.n	8001292 <_printf_float+0x1b6>
 800128e:	3302      	adds	r3, #2
 8001290:	e7f4      	b.n	800127c <_printf_float+0x1a0>
 8001292:	2301      	movs	r3, #1
 8001294:	e7f2      	b.n	800127c <_printf_float+0x1a0>
 8001296:	f04f 0b67 	mov.w	fp, #103	; 0x67
 800129a:	9b0a      	ldr	r3, [sp, #40]	; 0x28
 800129c:	4299      	cmp	r1, r3
 800129e:	db05      	blt.n	80012ac <_printf_float+0x1d0>
 80012a0:	6823      	ldr	r3, [r4, #0]
 80012a2:	6121      	str	r1, [r4, #16]
 80012a4:	07d8      	lsls	r0, r3, #31
 80012a6:	d5ea      	bpl.n	800127e <_printf_float+0x1a2>
 80012a8:	1c4b      	adds	r3, r1, #1
 80012aa:	e7e7      	b.n	800127c <_printf_float+0x1a0>
 80012ac:	2900      	cmp	r1, #0
 80012ae:	bfd4      	ite	le
 80012b0:	f1c1 0202 	rsble	r2, r1, #2
 80012b4:	2201      	movgt	r2, #1
 80012b6:	4413      	add	r3, r2
 80012b8:	e7e0      	b.n	800127c <_printf_float+0x1a0>
 80012ba:	6823      	ldr	r3, [r4, #0]
 80012bc:	055a      	lsls	r2, r3, #21
 80012be:	d407      	bmi.n	80012d0 <_printf_float+0x1f4>
 80012c0:	6923      	ldr	r3, [r4, #16]
 80012c2:	4642      	mov	r2, r8
 80012c4:	4631      	mov	r1, r6
 80012c6:	4628      	mov	r0, r5
 80012c8:	47b8      	blx	r7
 80012ca:	3001      	adds	r0, #1
 80012cc:	d12c      	bne.n	8001328 <_printf_float+0x24c>
 80012ce:	e764      	b.n	800119a <_printf_float+0xbe>
 80012d0:	f1bb 0f65 	cmp.w	fp, #101	; 0x65
 80012d4:	f240 80e0 	bls.w	8001498 <_printf_float+0x3bc>
 80012d8:	e9d4 0112 	ldrd	r0, r1, [r4, #72]	; 0x48
 80012dc:	2200      	movs	r2, #0
 80012de:	2300      	movs	r3, #0
 80012e0:	f7ff fbfa 	bl	8000ad8 <__aeabi_dcmpeq>
 80012e4:	2800      	cmp	r0, #0
 80012e6:	d034      	beq.n	8001352 <_printf_float+0x276>
 80012e8:	4a37      	ldr	r2, [pc, #220]	; (80013c8 <_printf_float+0x2ec>)
 80012ea:	2301      	movs	r3, #1
 80012ec:	4631      	mov	r1, r6
 80012ee:	4628      	mov	r0, r5
 80012f0:	47b8      	blx	r7
 80012f2:	3001      	adds	r0, #1
 80012f4:	f43f af51 	beq.w	800119a <_printf_float+0xbe>
 80012f8:	e9dd 2309 	ldrd	r2, r3, [sp, #36]	; 0x24
 80012fc:	429a      	cmp	r2, r3
 80012fe:	db02      	blt.n	8001306 <_printf_float+0x22a>
 8001300:	6823      	ldr	r3, [r4, #0]
 8001302:	07d8      	lsls	r0, r3, #31
 8001304:	d510      	bpl.n	8001328 <_printf_float+0x24c>
 8001306:	ee18 3a10 	vmov	r3, s16
 800130a:	4652      	mov	r2, sl
 800130c:	4631      	mov	r1, r6
 800130e:	4628      	mov	r0, r5
 8001310:	47b8      	blx	r7
 8001312:	3001      	adds	r0, #1
 8001314:	f43f af41 	beq.w	800119a <_printf_float+0xbe>
 8001318:	f04f 0800 	mov.w	r8, #0
 800131c:	f104 091a 	add.w	r9, r4, #26
 8001320:	9b0a      	ldr	r3, [sp, #40]	; 0x28
 8001322:	3b01      	subs	r3, #1
 8001324:	4543      	cmp	r3, r8
 8001326:	dc09      	bgt.n	800133c <_printf_float+0x260>
 8001328:	6823      	ldr	r3, [r4, #0]
 800132a:	079b      	lsls	r3, r3, #30
 800132c:	f100 8107 	bmi.w	800153e <_printf_float+0x462>
 8001330:	68e0      	ldr	r0, [r4, #12]
 8001332:	9b0b      	ldr	r3, [sp, #44]	; 0x2c
 8001334:	4298      	cmp	r0, r3
 8001336:	bfb8      	it	lt
 8001338:	4618      	movlt	r0, r3
 800133a:	e730      	b.n	800119e <_printf_float+0xc2>
 800133c:	2301      	movs	r3, #1
 800133e:	464a      	mov	r2, r9
 8001340:	4631      	mov	r1, r6
 8001342:	4628      	mov	r0, r5
 8001344:	47b8      	blx	r7
 8001346:	3001      	adds	r0, #1
 8001348:	f43f af27 	beq.w	800119a <_printf_float+0xbe>
 800134c:	f108 0801 	add.w	r8, r8, #1
 8001350:	e7e6      	b.n	8001320 <_printf_float+0x244>
 8001352:	9b09      	ldr	r3, [sp, #36]	; 0x24
 8001354:	2b00      	cmp	r3, #0
 8001356:	dc39      	bgt.n	80013cc <_printf_float+0x2f0>
 8001358:	4a1b      	ldr	r2, [pc, #108]	; (80013c8 <_printf_float+0x2ec>)
 800135a:	2301      	movs	r3, #1
 800135c:	4631      	mov	r1, r6
 800135e:	4628      	mov	r0, r5
 8001360:	47b8      	blx	r7
 8001362:	3001      	adds	r0, #1
 8001364:	f43f af19 	beq.w	800119a <_printf_float+0xbe>
 8001368:	e9dd 3209 	ldrd	r3, r2, [sp, #36]	; 0x24
 800136c:	4313      	orrs	r3, r2
 800136e:	d102      	bne.n	8001376 <_printf_float+0x29a>
 8001370:	6823      	ldr	r3, [r4, #0]
 8001372:	07d9      	lsls	r1, r3, #31
 8001374:	d5d8      	bpl.n	8001328 <_printf_float+0x24c>
 8001376:	ee18 3a10 	vmov	r3, s16
 800137a:	4652      	mov	r2, sl
 800137c:	4631      	mov	r1, r6
 800137e:	4628      	mov	r0, r5
 8001380:	47b8      	blx	r7
 8001382:	3001      	adds	r0, #1
 8001384:	f43f af09 	beq.w	800119a <_printf_float+0xbe>
 8001388:	f04f 0900 	mov.w	r9, #0
 800138c:	f104 0a1a 	add.w	sl, r4, #26
 8001390:	9b09      	ldr	r3, [sp, #36]	; 0x24
 8001392:	425b      	negs	r3, r3
 8001394:	454b      	cmp	r3, r9
 8001396:	dc01      	bgt.n	800139c <_printf_float+0x2c0>
 8001398:	9b0a      	ldr	r3, [sp, #40]	; 0x28
 800139a:	e792      	b.n	80012c2 <_printf_float+0x1e6>
 800139c:	2301      	movs	r3, #1
 800139e:	4652      	mov	r2, sl
 80013a0:	4631      	mov	r1, r6
 80013a2:	4628      	mov	r0, r5
 80013a4:	47b8      	blx	r7
 80013a6:	3001      	adds	r0, #1
 80013a8:	f43f aef7 	beq.w	800119a <_printf_float+0xbe>
 80013ac:	f109 0901 	add.w	r9, r9, #1
 80013b0:	e7ee      	b.n	8001390 <_printf_float+0x2b4>
 80013b2:	bf00      	nop
 80013b4:	7fefffff 	.word	0x7fefffff
 80013b8:	08003968 	.word	0x08003968
 80013bc:	0800396c 	.word	0x0800396c
 80013c0:	08003970 	.word	0x08003970
 80013c4:	08003974 	.word	0x08003974
 80013c8:	08003978 	.word	0x08003978
 80013cc:	9a0a      	ldr	r2, [sp, #40]	; 0x28
 80013ce:	6da3      	ldr	r3, [r4, #88]	; 0x58
 80013d0:	429a      	cmp	r2, r3
 80013d2:	bfa8      	it	ge
 80013d4:	461a      	movge	r2, r3
 80013d6:	2a00      	cmp	r2, #0
 80013d8:	4691      	mov	r9, r2
 80013da:	dc37      	bgt.n	800144c <_printf_float+0x370>
 80013dc:	f04f 0b00 	mov.w	fp, #0
 80013e0:	ea29 79e9 	bic.w	r9, r9, r9, asr #31
 80013e4:	f104 021a 	add.w	r2, r4, #26
 80013e8:	6da3      	ldr	r3, [r4, #88]	; 0x58
 80013ea:	9305      	str	r3, [sp, #20]
 80013ec:	eba3 0309 	sub.w	r3, r3, r9
 80013f0:	455b      	cmp	r3, fp
 80013f2:	dc33      	bgt.n	800145c <_printf_float+0x380>
 80013f4:	e9dd 2309 	ldrd	r2, r3, [sp, #36]	; 0x24
 80013f8:	429a      	cmp	r2, r3
 80013fa:	db3b      	blt.n	8001474 <_printf_float+0x398>
 80013fc:	6823      	ldr	r3, [r4, #0]
 80013fe:	07da      	lsls	r2, r3, #31
 8001400:	d438      	bmi.n	8001474 <_printf_float+0x398>
 8001402:	e9dd 3209 	ldrd	r3, r2, [sp, #36]	; 0x24
 8001406:	eba2 0903 	sub.w	r9, r2, r3
 800140a:	9b05      	ldr	r3, [sp, #20]
 800140c:	1ad2      	subs	r2, r2, r3
 800140e:	4591      	cmp	r9, r2
 8001410:	bfa8      	it	ge
 8001412:	4691      	movge	r9, r2
 8001414:	f1b9 0f00 	cmp.w	r9, #0
 8001418:	dc35      	bgt.n	8001486 <_printf_float+0x3aa>
 800141a:	f04f 0800 	mov.w	r8, #0
 800141e:	ea29 79e9 	bic.w	r9, r9, r9, asr #31
 8001422:	f104 0a1a 	add.w	sl, r4, #26
 8001426:	e9dd 2309 	ldrd	r2, r3, [sp, #36]	; 0x24
 800142a:	1a9b      	subs	r3, r3, r2
 800142c:	eba3 0309 	sub.w	r3, r3, r9
 8001430:	4543      	cmp	r3, r8
 8001432:	f77f af79 	ble.w	8001328 <_printf_float+0x24c>
 8001436:	2301      	movs	r3, #1
 8001438:	4652      	mov	r2, sl
 800143a:	4631      	mov	r1, r6
 800143c:	4628      	mov	r0, r5
 800143e:	47b8      	blx	r7
 8001440:	3001      	adds	r0, #1
 8001442:	f43f aeaa 	beq.w	800119a <_printf_float+0xbe>
 8001446:	f108 0801 	add.w	r8, r8, #1
 800144a:	e7ec      	b.n	8001426 <_printf_float+0x34a>
 800144c:	4613      	mov	r3, r2
 800144e:	4631      	mov	r1, r6
 8001450:	4642      	mov	r2, r8
 8001452:	4628      	mov	r0, r5
 8001454:	47b8      	blx	r7
 8001456:	3001      	adds	r0, #1
 8001458:	d1c0      	bne.n	80013dc <_printf_float+0x300>
 800145a:	e69e      	b.n	800119a <_printf_float+0xbe>
 800145c:	2301      	movs	r3, #1
 800145e:	4631      	mov	r1, r6
 8001460:	4628      	mov	r0, r5
 8001462:	9205      	str	r2, [sp, #20]
 8001464:	47b8      	blx	r7
 8001466:	3001      	adds	r0, #1
 8001468:	f43f ae97 	beq.w	800119a <_printf_float+0xbe>
 800146c:	9a05      	ldr	r2, [sp, #20]
 800146e:	f10b 0b01 	add.w	fp, fp, #1
 8001472:	e7b9      	b.n	80013e8 <_printf_float+0x30c>
 8001474:	ee18 3a10 	vmov	r3, s16
 8001478:	4652      	mov	r2, sl
 800147a:	4631      	mov	r1, r6
 800147c:	4628      	mov	r0, r5
 800147e:	47b8      	blx	r7
 8001480:	3001      	adds	r0, #1
 8001482:	d1be      	bne.n	8001402 <_printf_float+0x326>
 8001484:	e689      	b.n	800119a <_printf_float+0xbe>
 8001486:	9a05      	ldr	r2, [sp, #20]
 8001488:	464b      	mov	r3, r9
 800148a:	4442      	add	r2, r8
 800148c:	4631      	mov	r1, r6
 800148e:	4628      	mov	r0, r5
 8001490:	47b8      	blx	r7
 8001492:	3001      	adds	r0, #1
 8001494:	d1c1      	bne.n	800141a <_printf_float+0x33e>
 8001496:	e680      	b.n	800119a <_printf_float+0xbe>
 8001498:	9a0a      	ldr	r2, [sp, #40]	; 0x28
 800149a:	2a01      	cmp	r2, #1
 800149c:	dc01      	bgt.n	80014a2 <_printf_float+0x3c6>
 800149e:	07db      	lsls	r3, r3, #31
 80014a0:	d53a      	bpl.n	8001518 <_printf_float+0x43c>
 80014a2:	2301      	movs	r3, #1
 80014a4:	4642      	mov	r2, r8
 80014a6:	4631      	mov	r1, r6
 80014a8:	4628      	mov	r0, r5
 80014aa:	47b8      	blx	r7
 80014ac:	3001      	adds	r0, #1
 80014ae:	f43f ae74 	beq.w	800119a <_printf_float+0xbe>
 80014b2:	ee18 3a10 	vmov	r3, s16
 80014b6:	4652      	mov	r2, sl
 80014b8:	4631      	mov	r1, r6
 80014ba:	4628      	mov	r0, r5
 80014bc:	47b8      	blx	r7
 80014be:	3001      	adds	r0, #1
 80014c0:	f43f ae6b 	beq.w	800119a <_printf_float+0xbe>
 80014c4:	e9d4 0112 	ldrd	r0, r1, [r4, #72]	; 0x48
 80014c8:	2200      	movs	r2, #0
 80014ca:	2300      	movs	r3, #0
 80014cc:	f8dd a028 	ldr.w	sl, [sp, #40]	; 0x28
 80014d0:	f7ff fb02 	bl	8000ad8 <__aeabi_dcmpeq>
 80014d4:	b9d8      	cbnz	r0, 800150e <_printf_float+0x432>
 80014d6:	f10a 33ff 	add.w	r3, sl, #4294967295
 80014da:	f108 0201 	add.w	r2, r8, #1
 80014de:	4631      	mov	r1, r6
 80014e0:	4628      	mov	r0, r5
 80014e2:	47b8      	blx	r7
 80014e4:	3001      	adds	r0, #1
 80014e6:	d10e      	bne.n	8001506 <_printf_float+0x42a>
 80014e8:	e657      	b.n	800119a <_printf_float+0xbe>
 80014ea:	2301      	movs	r3, #1
 80014ec:	4652      	mov	r2, sl
 80014ee:	4631      	mov	r1, r6
 80014f0:	4628      	mov	r0, r5
 80014f2:	47b8      	blx	r7
 80014f4:	3001      	adds	r0, #1
 80014f6:	f43f ae50 	beq.w	800119a <_printf_float+0xbe>
 80014fa:	f108 0801 	add.w	r8, r8, #1
 80014fe:	9b0a      	ldr	r3, [sp, #40]	; 0x28
 8001500:	3b01      	subs	r3, #1
 8001502:	4543      	cmp	r3, r8
 8001504:	dcf1      	bgt.n	80014ea <_printf_float+0x40e>
 8001506:	464b      	mov	r3, r9
 8001508:	f104 0250 	add.w	r2, r4, #80	; 0x50
 800150c:	e6da      	b.n	80012c4 <_printf_float+0x1e8>
 800150e:	f04f 0800 	mov.w	r8, #0
 8001512:	f104 0a1a 	add.w	sl, r4, #26
 8001516:	e7f2      	b.n	80014fe <_printf_float+0x422>
 8001518:	2301      	movs	r3, #1
 800151a:	4642      	mov	r2, r8
 800151c:	e7df      	b.n	80014de <_printf_float+0x402>
 800151e:	2301      	movs	r3, #1
 8001520:	464a      	mov	r2, r9
 8001522:	4631      	mov	r1, r6
 8001524:	4628      	mov	r0, r5
 8001526:	47b8      	blx	r7
 8001528:	3001      	adds	r0, #1
 800152a:	f43f ae36 	beq.w	800119a <_printf_float+0xbe>
 800152e:	f108 0801 	add.w	r8, r8, #1
 8001532:	68e3      	ldr	r3, [r4, #12]
 8001534:	990b      	ldr	r1, [sp, #44]	; 0x2c
 8001536:	1a5b      	subs	r3, r3, r1
 8001538:	4543      	cmp	r3, r8
 800153a:	dcf0      	bgt.n	800151e <_printf_float+0x442>
 800153c:	e6f8      	b.n	8001330 <_printf_float+0x254>
 800153e:	f04f 0800 	mov.w	r8, #0
 8001542:	f104 0919 	add.w	r9, r4, #25
 8001546:	e7f4      	b.n	8001532 <_printf_float+0x456>

08001548 <_printf_common>:
 8001548:	e92d 47f0 	stmdb	sp!, {r4, r5, r6, r7, r8, r9, sl, lr}
 800154c:	4616      	mov	r6, r2
 800154e:	4699      	mov	r9, r3
 8001550:	688a      	ldr	r2, [r1, #8]
 8001552:	690b      	ldr	r3, [r1, #16]
 8001554:	f8dd 8020 	ldr.w	r8, [sp, #32]
 8001558:	4293      	cmp	r3, r2
 800155a:	bfb8      	it	lt
 800155c:	4613      	movlt	r3, r2
 800155e:	6033      	str	r3, [r6, #0]
 8001560:	f891 2043 	ldrb.w	r2, [r1, #67]	; 0x43
 8001564:	4607      	mov	r7, r0
 8001566:	460c      	mov	r4, r1
 8001568:	b10a      	cbz	r2, 800156e <_printf_common+0x26>
 800156a:	3301      	adds	r3, #1
 800156c:	6033      	str	r3, [r6, #0]
 800156e:	6823      	ldr	r3, [r4, #0]
 8001570:	0699      	lsls	r1, r3, #26
 8001572:	bf42      	ittt	mi
 8001574:	6833      	ldrmi	r3, [r6, #0]
 8001576:	3302      	addmi	r3, #2
 8001578:	6033      	strmi	r3, [r6, #0]
 800157a:	6825      	ldr	r5, [r4, #0]
 800157c:	f015 0506 	ands.w	r5, r5, #6
 8001580:	d106      	bne.n	8001590 <_printf_common+0x48>
 8001582:	f104 0a19 	add.w	sl, r4, #25
 8001586:	68e3      	ldr	r3, [r4, #12]
 8001588:	6832      	ldr	r2, [r6, #0]
 800158a:	1a9b      	subs	r3, r3, r2
 800158c:	42ab      	cmp	r3, r5
 800158e:	dc26      	bgt.n	80015de <_printf_common+0x96>
 8001590:	f894 2043 	ldrb.w	r2, [r4, #67]	; 0x43
 8001594:	1e13      	subs	r3, r2, #0
 8001596:	6822      	ldr	r2, [r4, #0]
 8001598:	bf18      	it	ne
 800159a:	2301      	movne	r3, #1
 800159c:	0692      	lsls	r2, r2, #26
 800159e:	d42b      	bmi.n	80015f8 <_printf_common+0xb0>
 80015a0:	f104 0243 	add.w	r2, r4, #67	; 0x43
 80015a4:	4649      	mov	r1, r9
 80015a6:	4638      	mov	r0, r7
 80015a8:	47c0      	blx	r8
 80015aa:	3001      	adds	r0, #1
 80015ac:	d01e      	beq.n	80015ec <_printf_common+0xa4>
 80015ae:	6823      	ldr	r3, [r4, #0]
 80015b0:	6922      	ldr	r2, [r4, #16]
 80015b2:	f003 0306 	and.w	r3, r3, #6
 80015b6:	2b04      	cmp	r3, #4
 80015b8:	bf02      	ittt	eq
 80015ba:	68e5      	ldreq	r5, [r4, #12]
 80015bc:	6833      	ldreq	r3, [r6, #0]
 80015be:	1aed      	subeq	r5, r5, r3
 80015c0:	68a3      	ldr	r3, [r4, #8]
 80015c2:	bf0c      	ite	eq
 80015c4:	ea25 75e5 	biceq.w	r5, r5, r5, asr #31
 80015c8:	2500      	movne	r5, #0
 80015ca:	4293      	cmp	r3, r2
 80015cc:	bfc4      	itt	gt
 80015ce:	1a9b      	subgt	r3, r3, r2
 80015d0:	18ed      	addgt	r5, r5, r3
 80015d2:	2600      	movs	r6, #0
 80015d4:	341a      	adds	r4, #26
 80015d6:	42b5      	cmp	r5, r6
 80015d8:	d11a      	bne.n	8001610 <_printf_common+0xc8>
 80015da:	2000      	movs	r0, #0
 80015dc:	e008      	b.n	80015f0 <_printf_common+0xa8>
 80015de:	2301      	movs	r3, #1
 80015e0:	4652      	mov	r2, sl
 80015e2:	4649      	mov	r1, r9
 80015e4:	4638      	mov	r0, r7
 80015e6:	47c0      	blx	r8
 80015e8:	3001      	adds	r0, #1
 80015ea:	d103      	bne.n	80015f4 <_printf_common+0xac>
 80015ec:	f04f 30ff 	mov.w	r0, #4294967295
 80015f0:	e8bd 87f0 	ldmia.w	sp!, {r4, r5, r6, r7, r8, r9, sl, pc}
 80015f4:	3501      	adds	r5, #1
 80015f6:	e7c6      	b.n	8001586 <_printf_common+0x3e>
 80015f8:	18e1      	adds	r1, r4, r3
 80015fa:	1c5a      	adds	r2, r3, #1
 80015fc:	2030      	movs	r0, #48	; 0x30
 80015fe:	f881 0043 	strb.w	r0, [r1, #67]	; 0x43
 8001602:	4422      	add	r2, r4
 8001604:	f894 1045 	ldrb.w	r1, [r4, #69]	; 0x45
 8001608:	f882 1043 	strb.w	r1, [r2, #67]	; 0x43
 800160c:	3302      	adds	r3, #2
 800160e:	e7c7      	b.n	80015a0 <_printf_common+0x58>
 8001610:	2301      	movs	r3, #1
 8001612:	4622      	mov	r2, r4
 8001614:	4649      	mov	r1, r9
 8001616:	4638      	mov	r0, r7
 8001618:	47c0      	blx	r8
 800161a:	3001      	adds	r0, #1
 800161c:	d0e6      	beq.n	80015ec <_printf_common+0xa4>
 800161e:	3601      	adds	r6, #1
 8001620:	e7d9      	b.n	80015d6 <_printf_common+0x8e>
	...

08001624 <_printf_i>:
 8001624:	e92d 47ff 	stmdb	sp!, {r0, r1, r2, r3, r4, r5, r6, r7, r8, r9, sl, lr}
 8001628:	7e0f      	ldrb	r7, [r1, #24]
 800162a:	9d0c      	ldr	r5, [sp, #48]	; 0x30
 800162c:	2f78      	cmp	r7, #120	; 0x78
 800162e:	4691      	mov	r9, r2
 8001630:	4680      	mov	r8, r0
 8001632:	460c      	mov	r4, r1
 8001634:	469a      	mov	sl, r3
 8001636:	f101 0243 	add.w	r2, r1, #67	; 0x43
 800163a:	d807      	bhi.n	800164c <_printf_i+0x28>
 800163c:	2f62      	cmp	r7, #98	; 0x62
 800163e:	d80a      	bhi.n	8001656 <_printf_i+0x32>
 8001640:	2f00      	cmp	r7, #0
 8001642:	f000 80d4 	beq.w	80017ee <_printf_i+0x1ca>
 8001646:	2f58      	cmp	r7, #88	; 0x58
 8001648:	f000 80c0 	beq.w	80017cc <_printf_i+0x1a8>
 800164c:	f104 0542 	add.w	r5, r4, #66	; 0x42
 8001650:	f884 7042 	strb.w	r7, [r4, #66]	; 0x42
 8001654:	e03a      	b.n	80016cc <_printf_i+0xa8>
 8001656:	f1a7 0363 	sub.w	r3, r7, #99	; 0x63
 800165a:	2b15      	cmp	r3, #21
 800165c:	d8f6      	bhi.n	800164c <_printf_i+0x28>
 800165e:	a101      	add	r1, pc, #4	; (adr r1, 8001664 <_printf_i+0x40>)
 8001660:	f851 f023 	ldr.w	pc, [r1, r3, lsl #2]
 8001664:	080016bd 	.word	0x080016bd
 8001668:	080016d1 	.word	0x080016d1
 800166c:	0800164d 	.word	0x0800164d
 8001670:	0800164d 	.word	0x0800164d
 8001674:	0800164d 	.word	0x0800164d
 8001678:	0800164d 	.word	0x0800164d
 800167c:	080016d1 	.word	0x080016d1
 8001680:	0800164d 	.word	0x0800164d
 8001684:	0800164d 	.word	0x0800164d
 8001688:	0800164d 	.word	0x0800164d
 800168c:	0800164d 	.word	0x0800164d
 8001690:	080017d5 	.word	0x080017d5
 8001694:	080016fd 	.word	0x080016fd
 8001698:	0800178f 	.word	0x0800178f
 800169c:	0800164d 	.word	0x0800164d
 80016a0:	0800164d 	.word	0x0800164d
 80016a4:	080017f7 	.word	0x080017f7
 80016a8:	0800164d 	.word	0x0800164d
 80016ac:	080016fd 	.word	0x080016fd
 80016b0:	0800164d 	.word	0x0800164d
 80016b4:	0800164d 	.word	0x0800164d
 80016b8:	08001797 	.word	0x08001797
 80016bc:	682b      	ldr	r3, [r5, #0]
 80016be:	1d1a      	adds	r2, r3, #4
 80016c0:	681b      	ldr	r3, [r3, #0]
 80016c2:	602a      	str	r2, [r5, #0]
 80016c4:	f104 0542 	add.w	r5, r4, #66	; 0x42
 80016c8:	f884 3042 	strb.w	r3, [r4, #66]	; 0x42
 80016cc:	2301      	movs	r3, #1
 80016ce:	e09f      	b.n	8001810 <_printf_i+0x1ec>
 80016d0:	6820      	ldr	r0, [r4, #0]
 80016d2:	682b      	ldr	r3, [r5, #0]
 80016d4:	0607      	lsls	r7, r0, #24
 80016d6:	f103 0104 	add.w	r1, r3, #4
 80016da:	6029      	str	r1, [r5, #0]
 80016dc:	d501      	bpl.n	80016e2 <_printf_i+0xbe>
 80016de:	681e      	ldr	r6, [r3, #0]
 80016e0:	e003      	b.n	80016ea <_printf_i+0xc6>
 80016e2:	0646      	lsls	r6, r0, #25
 80016e4:	d5fb      	bpl.n	80016de <_printf_i+0xba>
 80016e6:	f9b3 6000 	ldrsh.w	r6, [r3]
 80016ea:	2e00      	cmp	r6, #0
 80016ec:	da03      	bge.n	80016f6 <_printf_i+0xd2>
 80016ee:	232d      	movs	r3, #45	; 0x2d
 80016f0:	4276      	negs	r6, r6
 80016f2:	f884 3043 	strb.w	r3, [r4, #67]	; 0x43
 80016f6:	485a      	ldr	r0, [pc, #360]	; (8001860 <_printf_i+0x23c>)
 80016f8:	230a      	movs	r3, #10
 80016fa:	e012      	b.n	8001722 <_printf_i+0xfe>
 80016fc:	682b      	ldr	r3, [r5, #0]
 80016fe:	6820      	ldr	r0, [r4, #0]
 8001700:	1d19      	adds	r1, r3, #4
 8001702:	6029      	str	r1, [r5, #0]
 8001704:	0605      	lsls	r5, r0, #24
 8001706:	d501      	bpl.n	800170c <_printf_i+0xe8>
 8001708:	681e      	ldr	r6, [r3, #0]
 800170a:	e002      	b.n	8001712 <_printf_i+0xee>
 800170c:	0641      	lsls	r1, r0, #25
 800170e:	d5fb      	bpl.n	8001708 <_printf_i+0xe4>
 8001710:	881e      	ldrh	r6, [r3, #0]
 8001712:	4853      	ldr	r0, [pc, #332]	; (8001860 <_printf_i+0x23c>)
 8001714:	2f6f      	cmp	r7, #111	; 0x6f
 8001716:	bf0c      	ite	eq
 8001718:	2308      	moveq	r3, #8
 800171a:	230a      	movne	r3, #10
 800171c:	2100      	movs	r1, #0
 800171e:	f884 1043 	strb.w	r1, [r4, #67]	; 0x43
 8001722:	6865      	ldr	r5, [r4, #4]
 8001724:	60a5      	str	r5, [r4, #8]
 8001726:	2d00      	cmp	r5, #0
 8001728:	bfa2      	ittt	ge
 800172a:	6821      	ldrge	r1, [r4, #0]
 800172c:	f021 0104 	bicge.w	r1, r1, #4
 8001730:	6021      	strge	r1, [r4, #0]
 8001732:	b90e      	cbnz	r6, 8001738 <_printf_i+0x114>
 8001734:	2d00      	cmp	r5, #0
 8001736:	d04b      	beq.n	80017d0 <_printf_i+0x1ac>
 8001738:	4615      	mov	r5, r2
 800173a:	fbb6 f1f3 	udiv	r1, r6, r3
 800173e:	fb03 6711 	mls	r7, r3, r1, r6
 8001742:	5dc7      	ldrb	r7, [r0, r7]
 8001744:	f805 7d01 	strb.w	r7, [r5, #-1]!
 8001748:	4637      	mov	r7, r6
 800174a:	42bb      	cmp	r3, r7
 800174c:	460e      	mov	r6, r1
 800174e:	d9f4      	bls.n	800173a <_printf_i+0x116>
 8001750:	2b08      	cmp	r3, #8
 8001752:	d10b      	bne.n	800176c <_printf_i+0x148>
 8001754:	6823      	ldr	r3, [r4, #0]
 8001756:	07de      	lsls	r6, r3, #31
 8001758:	d508      	bpl.n	800176c <_printf_i+0x148>
 800175a:	6923      	ldr	r3, [r4, #16]
 800175c:	6861      	ldr	r1, [r4, #4]
 800175e:	4299      	cmp	r1, r3
 8001760:	bfde      	ittt	le
 8001762:	2330      	movle	r3, #48	; 0x30
 8001764:	f805 3c01 	strble.w	r3, [r5, #-1]
 8001768:	f105 35ff 	addle.w	r5, r5, #4294967295
 800176c:	1b52      	subs	r2, r2, r5
 800176e:	6122      	str	r2, [r4, #16]
 8001770:	f8cd a000 	str.w	sl, [sp]
 8001774:	464b      	mov	r3, r9
 8001776:	aa03      	add	r2, sp, #12
 8001778:	4621      	mov	r1, r4
 800177a:	4640      	mov	r0, r8
 800177c:	f7ff fee4 	bl	8001548 <_printf_common>
 8001780:	3001      	adds	r0, #1
 8001782:	d14a      	bne.n	800181a <_printf_i+0x1f6>
 8001784:	f04f 30ff 	mov.w	r0, #4294967295
 8001788:	b004      	add	sp, #16
 800178a:	e8bd 87f0 	ldmia.w	sp!, {r4, r5, r6, r7, r8, r9, sl, pc}
 800178e:	6823      	ldr	r3, [r4, #0]
 8001790:	f043 0320 	orr.w	r3, r3, #32
 8001794:	6023      	str	r3, [r4, #0]
 8001796:	4833      	ldr	r0, [pc, #204]	; (8001864 <_printf_i+0x240>)
 8001798:	2778      	movs	r7, #120	; 0x78
 800179a:	f884 7045 	strb.w	r7, [r4, #69]	; 0x45
 800179e:	6823      	ldr	r3, [r4, #0]
 80017a0:	6829      	ldr	r1, [r5, #0]
 80017a2:	061f      	lsls	r7, r3, #24
 80017a4:	f851 6b04 	ldr.w	r6, [r1], #4
 80017a8:	d402      	bmi.n	80017b0 <_printf_i+0x18c>
 80017aa:	065f      	lsls	r7, r3, #25
 80017ac:	bf48      	it	mi
 80017ae:	b2b6      	uxthmi	r6, r6
 80017b0:	07df      	lsls	r7, r3, #31
 80017b2:	bf48      	it	mi
 80017b4:	f043 0320 	orrmi.w	r3, r3, #32
 80017b8:	6029      	str	r1, [r5, #0]
 80017ba:	bf48      	it	mi
 80017bc:	6023      	strmi	r3, [r4, #0]
 80017be:	b91e      	cbnz	r6, 80017c8 <_printf_i+0x1a4>
 80017c0:	6823      	ldr	r3, [r4, #0]
 80017c2:	f023 0320 	bic.w	r3, r3, #32
 80017c6:	6023      	str	r3, [r4, #0]
 80017c8:	2310      	movs	r3, #16
 80017ca:	e7a7      	b.n	800171c <_printf_i+0xf8>
 80017cc:	4824      	ldr	r0, [pc, #144]	; (8001860 <_printf_i+0x23c>)
 80017ce:	e7e4      	b.n	800179a <_printf_i+0x176>
 80017d0:	4615      	mov	r5, r2
 80017d2:	e7bd      	b.n	8001750 <_printf_i+0x12c>
 80017d4:	682b      	ldr	r3, [r5, #0]
 80017d6:	6826      	ldr	r6, [r4, #0]
 80017d8:	6961      	ldr	r1, [r4, #20]
 80017da:	1d18      	adds	r0, r3, #4
 80017dc:	6028      	str	r0, [r5, #0]
 80017de:	0635      	lsls	r5, r6, #24
 80017e0:	681b      	ldr	r3, [r3, #0]
 80017e2:	d501      	bpl.n	80017e8 <_printf_i+0x1c4>
 80017e4:	6019      	str	r1, [r3, #0]
 80017e6:	e002      	b.n	80017ee <_printf_i+0x1ca>
 80017e8:	0670      	lsls	r0, r6, #25
 80017ea:	d5fb      	bpl.n	80017e4 <_printf_i+0x1c0>
 80017ec:	8019      	strh	r1, [r3, #0]
 80017ee:	2300      	movs	r3, #0
 80017f0:	6123      	str	r3, [r4, #16]
 80017f2:	4615      	mov	r5, r2
 80017f4:	e7bc      	b.n	8001770 <_printf_i+0x14c>
 80017f6:	682b      	ldr	r3, [r5, #0]
 80017f8:	1d1a      	adds	r2, r3, #4
 80017fa:	602a      	str	r2, [r5, #0]
 80017fc:	681d      	ldr	r5, [r3, #0]
 80017fe:	6862      	ldr	r2, [r4, #4]
 8001800:	2100      	movs	r1, #0
 8001802:	4628      	mov	r0, r5
 8001804:	f7fe fcec 	bl	80001e0 <memchr>
 8001808:	b108      	cbz	r0, 800180e <_printf_i+0x1ea>
 800180a:	1b40      	subs	r0, r0, r5
 800180c:	6060      	str	r0, [r4, #4]
 800180e:	6863      	ldr	r3, [r4, #4]
 8001810:	6123      	str	r3, [r4, #16]
 8001812:	2300      	movs	r3, #0
 8001814:	f884 3043 	strb.w	r3, [r4, #67]	; 0x43
 8001818:	e7aa      	b.n	8001770 <_printf_i+0x14c>
 800181a:	6923      	ldr	r3, [r4, #16]
 800181c:	462a      	mov	r2, r5
 800181e:	4649      	mov	r1, r9
 8001820:	4640      	mov	r0, r8
 8001822:	47d0      	blx	sl
 8001824:	3001      	adds	r0, #1
 8001826:	d0ad      	beq.n	8001784 <_printf_i+0x160>
 8001828:	6823      	ldr	r3, [r4, #0]
 800182a:	079b      	lsls	r3, r3, #30
 800182c:	d413      	bmi.n	8001856 <_printf_i+0x232>
 800182e:	68e0      	ldr	r0, [r4, #12]
 8001830:	9b03      	ldr	r3, [sp, #12]
 8001832:	4298      	cmp	r0, r3
 8001834:	bfb8      	it	lt
 8001836:	4618      	movlt	r0, r3
 8001838:	e7a6      	b.n	8001788 <_printf_i+0x164>
 800183a:	2301      	movs	r3, #1
 800183c:	4632      	mov	r2, r6
 800183e:	4649      	mov	r1, r9
 8001840:	4640      	mov	r0, r8
 8001842:	47d0      	blx	sl
 8001844:	3001      	adds	r0, #1
 8001846:	d09d      	beq.n	8001784 <_printf_i+0x160>
 8001848:	3501      	adds	r5, #1
 800184a:	68e3      	ldr	r3, [r4, #12]
 800184c:	9903      	ldr	r1, [sp, #12]
 800184e:	1a5b      	subs	r3, r3, r1
 8001850:	42ab      	cmp	r3, r5
 8001852:	dcf2      	bgt.n	800183a <_printf_i+0x216>
 8001854:	e7eb      	b.n	800182e <_printf_i+0x20a>
 8001856:	2500      	movs	r5, #0
 8001858:	f104 0619 	add.w	r6, r4, #25
 800185c:	e7f5      	b.n	800184a <_printf_i+0x226>
 800185e:	bf00      	nop
 8001860:	0800397a 	.word	0x0800397a
 8001864:	0800398b 	.word	0x0800398b

08001868 <std>:
 8001868:	2300      	movs	r3, #0
 800186a:	b510      	push	{r4, lr}
 800186c:	4604      	mov	r4, r0
 800186e:	e9c0 3300 	strd	r3, r3, [r0]
 8001872:	e9c0 3304 	strd	r3, r3, [r0, #16]
 8001876:	6083      	str	r3, [r0, #8]
 8001878:	8181      	strh	r1, [r0, #12]
 800187a:	6643      	str	r3, [r0, #100]	; 0x64
 800187c:	81c2      	strh	r2, [r0, #14]
 800187e:	6183      	str	r3, [r0, #24]
 8001880:	4619      	mov	r1, r3
 8001882:	2208      	movs	r2, #8
 8001884:	305c      	adds	r0, #92	; 0x5c
 8001886:	f000 f906 	bl	8001a96 <memset>
 800188a:	4b0d      	ldr	r3, [pc, #52]	; (80018c0 <std+0x58>)
 800188c:	6263      	str	r3, [r4, #36]	; 0x24
 800188e:	4b0d      	ldr	r3, [pc, #52]	; (80018c4 <std+0x5c>)
 8001890:	62a3      	str	r3, [r4, #40]	; 0x28
 8001892:	4b0d      	ldr	r3, [pc, #52]	; (80018c8 <std+0x60>)
 8001894:	62e3      	str	r3, [r4, #44]	; 0x2c
 8001896:	4b0d      	ldr	r3, [pc, #52]	; (80018cc <std+0x64>)
 8001898:	6323      	str	r3, [r4, #48]	; 0x30
 800189a:	4b0d      	ldr	r3, [pc, #52]	; (80018d0 <std+0x68>)
 800189c:	6224      	str	r4, [r4, #32]
 800189e:	429c      	cmp	r4, r3
 80018a0:	d006      	beq.n	80018b0 <std+0x48>
 80018a2:	f103 0268 	add.w	r2, r3, #104	; 0x68
 80018a6:	4294      	cmp	r4, r2
 80018a8:	d002      	beq.n	80018b0 <std+0x48>
 80018aa:	33d0      	adds	r3, #208	; 0xd0
 80018ac:	429c      	cmp	r4, r3
 80018ae:	d105      	bne.n	80018bc <std+0x54>
 80018b0:	f104 0058 	add.w	r0, r4, #88	; 0x58
 80018b4:	e8bd 4010 	ldmia.w	sp!, {r4, lr}
 80018b8:	f000 b96a 	b.w	8001b90 <__retarget_lock_init_recursive>
 80018bc:	bd10      	pop	{r4, pc}
 80018be:	bf00      	nop
 80018c0:	08001a11 	.word	0x08001a11
 80018c4:	08001a33 	.word	0x08001a33
 80018c8:	08001a6b 	.word	0x08001a6b
 80018cc:	08001a8f 	.word	0x08001a8f
 80018d0:	200001f8 	.word	0x200001f8

080018d4 <stdio_exit_handler>:
 80018d4:	4a02      	ldr	r2, [pc, #8]	; (80018e0 <stdio_exit_handler+0xc>)
 80018d6:	4903      	ldr	r1, [pc, #12]	; (80018e4 <stdio_exit_handler+0x10>)
 80018d8:	4803      	ldr	r0, [pc, #12]	; (80018e8 <stdio_exit_handler+0x14>)
 80018da:	f000 b869 	b.w	80019b0 <_fwalk_sglue>
 80018de:	bf00      	nop
 80018e0:	20000000 	.word	0x20000000
 80018e4:	08003519 	.word	0x08003519
 80018e8:	2000000c 	.word	0x2000000c

080018ec <cleanup_stdio>:
 80018ec:	6841      	ldr	r1, [r0, #4]
 80018ee:	4b0c      	ldr	r3, [pc, #48]	; (8001920 <cleanup_stdio+0x34>)
 80018f0:	4299      	cmp	r1, r3
 80018f2:	b510      	push	{r4, lr}
 80018f4:	4604      	mov	r4, r0
 80018f6:	d001      	beq.n	80018fc <cleanup_stdio+0x10>
 80018f8:	f001 fe0e 	bl	8003518 <_fflush_r>
 80018fc:	68a1      	ldr	r1, [r4, #8]
 80018fe:	4b09      	ldr	r3, [pc, #36]	; (8001924 <cleanup_stdio+0x38>)
 8001900:	4299      	cmp	r1, r3
 8001902:	d002      	beq.n	800190a <cleanup_stdio+0x1e>
 8001904:	4620      	mov	r0, r4
 8001906:	f001 fe07 	bl	8003518 <_fflush_r>
 800190a:	68e1      	ldr	r1, [r4, #12]
 800190c:	4b06      	ldr	r3, [pc, #24]	; (8001928 <cleanup_stdio+0x3c>)
 800190e:	4299      	cmp	r1, r3
 8001910:	d004      	beq.n	800191c <cleanup_stdio+0x30>
 8001912:	4620      	mov	r0, r4
 8001914:	e8bd 4010 	ldmia.w	sp!, {r4, lr}
 8001918:	f001 bdfe 	b.w	8003518 <_fflush_r>
 800191c:	bd10      	pop	{r4, pc}
 800191e:	bf00      	nop
 8001920:	200001f8 	.word	0x200001f8
 8001924:	20000260 	.word	0x20000260
 8001928:	200002c8 	.word	0x200002c8

0800192c <global_stdio_init.part.0>:
 800192c:	b510      	push	{r4, lr}
 800192e:	4b0b      	ldr	r3, [pc, #44]	; (800195c <global_stdio_init.part.0+0x30>)
 8001930:	4c0b      	ldr	r4, [pc, #44]	; (8001960 <global_stdio_init.part.0+0x34>)
 8001932:	4a0c      	ldr	r2, [pc, #48]	; (8001964 <global_stdio_init.part.0+0x38>)
 8001934:	601a      	str	r2, [r3, #0]
 8001936:	4620      	mov	r0, r4
 8001938:	2200      	movs	r2, #0
 800193a:	2104      	movs	r1, #4
 800193c:	f7ff ff94 	bl	8001868 <std>
 8001940:	f104 0068 	add.w	r0, r4, #104	; 0x68
 8001944:	2201      	movs	r2, #1
 8001946:	2109      	movs	r1, #9
 8001948:	f7ff ff8e 	bl	8001868 <std>
 800194c:	f104 00d0 	add.w	r0, r4, #208	; 0xd0
 8001950:	2202      	movs	r2, #2
 8001952:	e8bd 4010 	ldmia.w	sp!, {r4, lr}
 8001956:	2112      	movs	r1, #18
 8001958:	f7ff bf86 	b.w	8001868 <std>
 800195c:	20000330 	.word	0x20000330
 8001960:	200001f8 	.word	0x200001f8
 8001964:	080018d5 	.word	0x080018d5

08001968 <__sfp_lock_acquire>:
 8001968:	4801      	ldr	r0, [pc, #4]	; (8001970 <__sfp_lock_acquire+0x8>)
 800196a:	f000 b912 	b.w	8001b92 <__retarget_lock_acquire_recursive>
 800196e:	bf00      	nop
 8001970:	20000339 	.word	0x20000339

08001974 <__sfp_lock_release>:
 8001974:	4801      	ldr	r0, [pc, #4]	; (800197c <__sfp_lock_release+0x8>)
 8001976:	f000 b90d 	b.w	8001b94 <__retarget_lock_release_recursive>
 800197a:	bf00      	nop
 800197c:	20000339 	.word	0x20000339

08001980 <__sinit>:
 8001980:	b510      	push	{r4, lr}
 8001982:	4604      	mov	r4, r0
 8001984:	f7ff fff0 	bl	8001968 <__sfp_lock_acquire>
 8001988:	6a23      	ldr	r3, [r4, #32]
 800198a:	b11b      	cbz	r3, 8001994 <__sinit+0x14>
 800198c:	e8bd 4010 	ldmia.w	sp!, {r4, lr}
 8001990:	f7ff bff0 	b.w	8001974 <__sfp_lock_release>
 8001994:	4b04      	ldr	r3, [pc, #16]	; (80019a8 <__sinit+0x28>)
 8001996:	6223      	str	r3, [r4, #32]
 8001998:	4b04      	ldr	r3, [pc, #16]	; (80019ac <__sinit+0x2c>)
 800199a:	681b      	ldr	r3, [r3, #0]
 800199c:	2b00      	cmp	r3, #0
 800199e:	d1f5      	bne.n	800198c <__sinit+0xc>
 80019a0:	f7ff ffc4 	bl	800192c <global_stdio_init.part.0>
 80019a4:	e7f2      	b.n	800198c <__sinit+0xc>
 80019a6:	bf00      	nop
 80019a8:	080018ed 	.word	0x080018ed
 80019ac:	20000330 	.word	0x20000330

080019b0 <_fwalk_sglue>:
 80019b0:	e92d 43f8 	stmdb	sp!, {r3, r4, r5, r6, r7, r8, r9, lr}
 80019b4:	4607      	mov	r7, r0
 80019b6:	4688      	mov	r8, r1
 80019b8:	4614      	mov	r4, r2
 80019ba:	2600      	movs	r6, #0
 80019bc:	e9d4 9501 	ldrd	r9, r5, [r4, #4]
 80019c0:	f1b9 0901 	subs.w	r9, r9, #1
 80019c4:	d505      	bpl.n	80019d2 <_fwalk_sglue+0x22>
 80019c6:	6824      	ldr	r4, [r4, #0]
 80019c8:	2c00      	cmp	r4, #0
 80019ca:	d1f7      	bne.n	80019bc <_fwalk_sglue+0xc>
 80019cc:	4630      	mov	r0, r6
 80019ce:	e8bd 83f8 	ldmia.w	sp!, {r3, r4, r5, r6, r7, r8, r9, pc}
 80019d2:	89ab      	ldrh	r3, [r5, #12]
 80019d4:	2b01      	cmp	r3, #1
 80019d6:	d907      	bls.n	80019e8 <_fwalk_sglue+0x38>
 80019d8:	f9b5 300e 	ldrsh.w	r3, [r5, #14]
 80019dc:	3301      	adds	r3, #1
 80019de:	d003      	beq.n	80019e8 <_fwalk_sglue+0x38>
 80019e0:	4629      	mov	r1, r5
 80019e2:	4638      	mov	r0, r7
 80019e4:	47c0      	blx	r8
 80019e6:	4306      	orrs	r6, r0
 80019e8:	3568      	adds	r5, #104	; 0x68
 80019ea:	e7e9      	b.n	80019c0 <_fwalk_sglue+0x10>

080019ec <iprintf>:
 80019ec:	b40f      	push	{r0, r1, r2, r3}
 80019ee:	b507      	push	{r0, r1, r2, lr}
 80019f0:	4906      	ldr	r1, [pc, #24]	; (8001a0c <iprintf+0x20>)
 80019f2:	ab04      	add	r3, sp, #16
 80019f4:	6808      	ldr	r0, [r1, #0]
 80019f6:	f853 2b04 	ldr.w	r2, [r3], #4
 80019fa:	6881      	ldr	r1, [r0, #8]
 80019fc:	9301      	str	r3, [sp, #4]
 80019fe:	f001 fbeb 	bl	80031d8 <_vfiprintf_r>
 8001a02:	b003      	add	sp, #12
 8001a04:	f85d eb04 	ldr.w	lr, [sp], #4
 8001a08:	b004      	add	sp, #16
 8001a0a:	4770      	bx	lr
 8001a0c:	20000058 	.word	0x20000058

08001a10 <__sread>:
 8001a10:	b510      	push	{r4, lr}
 8001a12:	460c      	mov	r4, r1
 8001a14:	f9b1 100e 	ldrsh.w	r1, [r1, #14]
 8001a18:	f000 f86c 	bl	8001af4 <_read_r>
 8001a1c:	2800      	cmp	r0, #0
 8001a1e:	bfab      	itete	ge
 8001a20:	6d63      	ldrge	r3, [r4, #84]	; 0x54
 8001a22:	89a3      	ldrhlt	r3, [r4, #12]
 8001a24:	181b      	addge	r3, r3, r0
 8001a26:	f423 5380 	biclt.w	r3, r3, #4096	; 0x1000
 8001a2a:	bfac      	ite	ge
 8001a2c:	6563      	strge	r3, [r4, #84]	; 0x54
 8001a2e:	81a3      	strhlt	r3, [r4, #12]
 8001a30:	bd10      	pop	{r4, pc}

08001a32 <__swrite>:
 8001a32:	e92d 41f0 	stmdb	sp!, {r4, r5, r6, r7, r8, lr}
 8001a36:	461f      	mov	r7, r3
 8001a38:	898b      	ldrh	r3, [r1, #12]
 8001a3a:	05db      	lsls	r3, r3, #23
 8001a3c:	4605      	mov	r5, r0
 8001a3e:	460c      	mov	r4, r1
 8001a40:	4616      	mov	r6, r2
 8001a42:	d505      	bpl.n	8001a50 <__swrite+0x1e>
 8001a44:	f9b1 100e 	ldrsh.w	r1, [r1, #14]
 8001a48:	2302      	movs	r3, #2
 8001a4a:	2200      	movs	r2, #0
 8001a4c:	f000 f840 	bl	8001ad0 <_lseek_r>
 8001a50:	89a3      	ldrh	r3, [r4, #12]
 8001a52:	f9b4 100e 	ldrsh.w	r1, [r4, #14]
 8001a56:	f423 5380 	bic.w	r3, r3, #4096	; 0x1000
 8001a5a:	81a3      	strh	r3, [r4, #12]
 8001a5c:	4632      	mov	r2, r6
 8001a5e:	463b      	mov	r3, r7
 8001a60:	4628      	mov	r0, r5
 8001a62:	e8bd 41f0 	ldmia.w	sp!, {r4, r5, r6, r7, r8, lr}
 8001a66:	f000 b857 	b.w	8001b18 <_write_r>

08001a6a <__sseek>:
 8001a6a:	b510      	push	{r4, lr}
 8001a6c:	460c      	mov	r4, r1
 8001a6e:	f9b1 100e 	ldrsh.w	r1, [r1, #14]
 8001a72:	f000 f82d 	bl	8001ad0 <_lseek_r>
 8001a76:	1c43      	adds	r3, r0, #1
 8001a78:	89a3      	ldrh	r3, [r4, #12]
 8001a7a:	bf15      	itete	ne
 8001a7c:	6560      	strne	r0, [r4, #84]	; 0x54
 8001a7e:	f423 5380 	biceq.w	r3, r3, #4096	; 0x1000
 8001a82:	f443 5380 	orrne.w	r3, r3, #4096	; 0x1000
 8001a86:	81a3      	strheq	r3, [r4, #12]
 8001a88:	bf18      	it	ne
 8001a8a:	81a3      	strhne	r3, [r4, #12]
 8001a8c:	bd10      	pop	{r4, pc}

08001a8e <__sclose>:
 8001a8e:	f9b1 100e 	ldrsh.w	r1, [r1, #14]
 8001a92:	f000 b80d 	b.w	8001ab0 <_close_r>

08001a96 <memset>:
 8001a96:	4402      	add	r2, r0
 8001a98:	4603      	mov	r3, r0
 8001a9a:	4293      	cmp	r3, r2
 8001a9c:	d100      	bne.n	8001aa0 <memset+0xa>
 8001a9e:	4770      	bx	lr
 8001aa0:	f803 1b01 	strb.w	r1, [r3], #1
 8001aa4:	e7f9      	b.n	8001a9a <memset+0x4>
	...

08001aa8 <_localeconv_r>:
 8001aa8:	4800      	ldr	r0, [pc, #0]	; (8001aac <_localeconv_r+0x4>)
 8001aaa:	4770      	bx	lr
 8001aac:	2000014c 	.word	0x2000014c

08001ab0 <_close_r>:
 8001ab0:	b538      	push	{r3, r4, r5, lr}
 8001ab2:	4d06      	ldr	r5, [pc, #24]	; (8001acc <_close_r+0x1c>)
 8001ab4:	2300      	movs	r3, #0
 8001ab6:	4604      	mov	r4, r0
 8001ab8:	4608      	mov	r0, r1
 8001aba:	602b      	str	r3, [r5, #0]
 8001abc:	f7ff f979 	bl	8000db2 <_close>
 8001ac0:	1c43      	adds	r3, r0, #1
 8001ac2:	d102      	bne.n	8001aca <_close_r+0x1a>
 8001ac4:	682b      	ldr	r3, [r5, #0]
 8001ac6:	b103      	cbz	r3, 8001aca <_close_r+0x1a>
 8001ac8:	6023      	str	r3, [r4, #0]
 8001aca:	bd38      	pop	{r3, r4, r5, pc}
 8001acc:	20000334 	.word	0x20000334

08001ad0 <_lseek_r>:
 8001ad0:	b538      	push	{r3, r4, r5, lr}
 8001ad2:	4d07      	ldr	r5, [pc, #28]	; (8001af0 <_lseek_r+0x20>)
 8001ad4:	4604      	mov	r4, r0
 8001ad6:	4608      	mov	r0, r1
 8001ad8:	4611      	mov	r1, r2
 8001ada:	2200      	movs	r2, #0
 8001adc:	602a      	str	r2, [r5, #0]
 8001ade:	461a      	mov	r2, r3
 8001ae0:	f7ff f98e 	bl	8000e00 <_lseek>
 8001ae4:	1c43      	adds	r3, r0, #1
 8001ae6:	d102      	bne.n	8001aee <_lseek_r+0x1e>
 8001ae8:	682b      	ldr	r3, [r5, #0]
 8001aea:	b103      	cbz	r3, 8001aee <_lseek_r+0x1e>
 8001aec:	6023      	str	r3, [r4, #0]
 8001aee:	bd38      	pop	{r3, r4, r5, pc}
 8001af0:	20000334 	.word	0x20000334

08001af4 <_read_r>:
 8001af4:	b538      	push	{r3, r4, r5, lr}
 8001af6:	4d07      	ldr	r5, [pc, #28]	; (8001b14 <_read_r+0x20>)
 8001af8:	4604      	mov	r4, r0
 8001afa:	4608      	mov	r0, r1
 8001afc:	4611      	mov	r1, r2
 8001afe:	2200      	movs	r2, #0
 8001b00:	602a      	str	r2, [r5, #0]
 8001b02:	461a      	mov	r2, r3
 8001b04:	f7ff f91c 	bl	8000d40 <_read>
 8001b08:	1c43      	adds	r3, r0, #1
 8001b0a:	d102      	bne.n	8001b12 <_read_r+0x1e>
 8001b0c:	682b      	ldr	r3, [r5, #0]
 8001b0e:	b103      	cbz	r3, 8001b12 <_read_r+0x1e>
 8001b10:	6023      	str	r3, [r4, #0]
 8001b12:	bd38      	pop	{r3, r4, r5, pc}
 8001b14:	20000334 	.word	0x20000334

08001b18 <_write_r>:
 8001b18:	b538      	push	{r3, r4, r5, lr}
 8001b1a:	4d07      	ldr	r5, [pc, #28]	; (8001b38 <_write_r+0x20>)
 8001b1c:	4604      	mov	r4, r0
 8001b1e:	4608      	mov	r0, r1
 8001b20:	4611      	mov	r1, r2
 8001b22:	2200      	movs	r2, #0
 8001b24:	602a      	str	r2, [r5, #0]
 8001b26:	461a      	mov	r2, r3
 8001b28:	f7ff f927 	bl	8000d7a <_write>
 8001b2c:	1c43      	adds	r3, r0, #1
 8001b2e:	d102      	bne.n	8001b36 <_write_r+0x1e>
 8001b30:	682b      	ldr	r3, [r5, #0]
 8001b32:	b103      	cbz	r3, 8001b36 <_write_r+0x1e>
 8001b34:	6023      	str	r3, [r4, #0]
 8001b36:	bd38      	pop	{r3, r4, r5, pc}
 8001b38:	20000334 	.word	0x20000334

08001b3c <__errno>:
 8001b3c:	4b01      	ldr	r3, [pc, #4]	; (8001b44 <__errno+0x8>)
 8001b3e:	6818      	ldr	r0, [r3, #0]
 8001b40:	4770      	bx	lr
 8001b42:	bf00      	nop
 8001b44:	20000058 	.word	0x20000058

08001b48 <__libc_init_array>:
 8001b48:	b570      	push	{r4, r5, r6, lr}
 8001b4a:	4d0d      	ldr	r5, [pc, #52]	; (8001b80 <__libc_init_array+0x38>)
 8001b4c:	4c0d      	ldr	r4, [pc, #52]	; (8001b84 <__libc_init_array+0x3c>)
 8001b4e:	1b64      	subs	r4, r4, r5
 8001b50:	10a4      	asrs	r4, r4, #2
 8001b52:	2600      	movs	r6, #0
 8001b54:	42a6      	cmp	r6, r4
 8001b56:	d109      	bne.n	8001b6c <__libc_init_array+0x24>
 8001b58:	4d0b      	ldr	r5, [pc, #44]	; (8001b88 <__libc_init_array+0x40>)
 8001b5a:	4c0c      	ldr	r4, [pc, #48]	; (8001b8c <__libc_init_array+0x44>)
 8001b5c:	f001 feee 	bl	800393c <_init>
 8001b60:	1b64      	subs	r4, r4, r5
 8001b62:	10a4      	asrs	r4, r4, #2
 8001b64:	2600      	movs	r6, #0
 8001b66:	42a6      	cmp	r6, r4
 8001b68:	d105      	bne.n	8001b76 <__libc_init_array+0x2e>
 8001b6a:	bd70      	pop	{r4, r5, r6, pc}
 8001b6c:	f855 3b04 	ldr.w	r3, [r5], #4
 8001b70:	4798      	blx	r3
 8001b72:	3601      	adds	r6, #1
 8001b74:	e7ee      	b.n	8001b54 <__libc_init_array+0xc>
 8001b76:	f855 3b04 	ldr.w	r3, [r5], #4
 8001b7a:	4798      	blx	r3
 8001b7c:	3601      	adds	r6, #1
 8001b7e:	e7f2      	b.n	8001b66 <__libc_init_array+0x1e>
 8001b80:	08003cdc 	.word	0x08003cdc
 8001b84:	08003cdc 	.word	0x08003cdc
 8001b88:	08003cdc 	.word	0x08003cdc
 8001b8c:	08003ce0 	.word	0x08003ce0

08001b90 <__retarget_lock_init_recursive>:
 8001b90:	4770      	bx	lr

08001b92 <__retarget_lock_acquire_recursive>:
 8001b92:	4770      	bx	lr

08001b94 <__retarget_lock_release_recursive>:
 8001b94:	4770      	bx	lr

08001b96 <quorem>:
 8001b96:	e92d 4ff7 	stmdb	sp!, {r0, r1, r2, r4, r5, r6, r7, r8, r9, sl, fp, lr}
 8001b9a:	6903      	ldr	r3, [r0, #16]
 8001b9c:	690c      	ldr	r4, [r1, #16]
 8001b9e:	42a3      	cmp	r3, r4
 8001ba0:	4607      	mov	r7, r0
 8001ba2:	db7e      	blt.n	8001ca2 <quorem+0x10c>
 8001ba4:	3c01      	subs	r4, #1
 8001ba6:	f101 0814 	add.w	r8, r1, #20
 8001baa:	f100 0514 	add.w	r5, r0, #20
 8001bae:	eb05 0384 	add.w	r3, r5, r4, lsl #2
 8001bb2:	9301      	str	r3, [sp, #4]
 8001bb4:	f858 3024 	ldr.w	r3, [r8, r4, lsl #2]
 8001bb8:	f855 2024 	ldr.w	r2, [r5, r4, lsl #2]
 8001bbc:	3301      	adds	r3, #1
 8001bbe:	429a      	cmp	r2, r3
 8001bc0:	ea4f 0b84 	mov.w	fp, r4, lsl #2
 8001bc4:	eb08 0984 	add.w	r9, r8, r4, lsl #2
 8001bc8:	fbb2 f6f3 	udiv	r6, r2, r3
 8001bcc:	d331      	bcc.n	8001c32 <quorem+0x9c>
 8001bce:	f04f 0e00 	mov.w	lr, #0
 8001bd2:	4640      	mov	r0, r8
 8001bd4:	46ac      	mov	ip, r5
 8001bd6:	46f2      	mov	sl, lr
 8001bd8:	f850 2b04 	ldr.w	r2, [r0], #4
 8001bdc:	b293      	uxth	r3, r2
 8001bde:	fb06 e303 	mla	r3, r6, r3, lr
 8001be2:	ea4f 4e12 	mov.w	lr, r2, lsr #16
 8001be6:	0c1a      	lsrs	r2, r3, #16
 8001be8:	b29b      	uxth	r3, r3
 8001bea:	ebaa 0303 	sub.w	r3, sl, r3
 8001bee:	f8dc a000 	ldr.w	sl, [ip]
 8001bf2:	fa13 f38a 	uxtah	r3, r3, sl
 8001bf6:	fb06 220e 	mla	r2, r6, lr, r2
 8001bfa:	9300      	str	r3, [sp, #0]
 8001bfc:	9b00      	ldr	r3, [sp, #0]
 8001bfe:	ea4f 4e12 	mov.w	lr, r2, lsr #16
 8001c02:	b292      	uxth	r2, r2
 8001c04:	ebc2 421a 	rsb	r2, r2, sl, lsr #16
 8001c08:	eb02 4223 	add.w	r2, r2, r3, asr #16
 8001c0c:	f8bd 3000 	ldrh.w	r3, [sp]
 8001c10:	4581      	cmp	r9, r0
 8001c12:	ea43 4302 	orr.w	r3, r3, r2, lsl #16
 8001c16:	f84c 3b04 	str.w	r3, [ip], #4
 8001c1a:	ea4f 4a22 	mov.w	sl, r2, asr #16
 8001c1e:	d2db      	bcs.n	8001bd8 <quorem+0x42>
 8001c20:	f855 300b 	ldr.w	r3, [r5, fp]
 8001c24:	b92b      	cbnz	r3, 8001c32 <quorem+0x9c>
 8001c26:	9b01      	ldr	r3, [sp, #4]
 8001c28:	3b04      	subs	r3, #4
 8001c2a:	429d      	cmp	r5, r3
 8001c2c:	461a      	mov	r2, r3
 8001c2e:	d32c      	bcc.n	8001c8a <quorem+0xf4>
 8001c30:	613c      	str	r4, [r7, #16]
 8001c32:	4638      	mov	r0, r7
 8001c34:	f001 f9a6 	bl	8002f84 <__mcmp>
 8001c38:	2800      	cmp	r0, #0
 8001c3a:	db22      	blt.n	8001c82 <quorem+0xec>
 8001c3c:	3601      	adds	r6, #1
 8001c3e:	4629      	mov	r1, r5
 8001c40:	2000      	movs	r0, #0
 8001c42:	f858 2b04 	ldr.w	r2, [r8], #4
 8001c46:	f8d1 c000 	ldr.w	ip, [r1]
 8001c4a:	b293      	uxth	r3, r2
 8001c4c:	1ac3      	subs	r3, r0, r3
 8001c4e:	0c12      	lsrs	r2, r2, #16
 8001c50:	fa13 f38c 	uxtah	r3, r3, ip
 8001c54:	ebc2 421c 	rsb	r2, r2, ip, lsr #16
 8001c58:	eb02 4223 	add.w	r2, r2, r3, asr #16
 8001c5c:	b29b      	uxth	r3, r3
 8001c5e:	ea43 4302 	orr.w	r3, r3, r2, lsl #16
 8001c62:	45c1      	cmp	r9, r8
 8001c64:	f841 3b04 	str.w	r3, [r1], #4
 8001c68:	ea4f 4022 	mov.w	r0, r2, asr #16
 8001c6c:	d2e9      	bcs.n	8001c42 <quorem+0xac>
 8001c6e:	f855 2024 	ldr.w	r2, [r5, r4, lsl #2]
 8001c72:	eb05 0384 	add.w	r3, r5, r4, lsl #2
 8001c76:	b922      	cbnz	r2, 8001c82 <quorem+0xec>
 8001c78:	3b04      	subs	r3, #4
 8001c7a:	429d      	cmp	r5, r3
 8001c7c:	461a      	mov	r2, r3
 8001c7e:	d30a      	bcc.n	8001c96 <quorem+0x100>
 8001c80:	613c      	str	r4, [r7, #16]
 8001c82:	4630      	mov	r0, r6
 8001c84:	b003      	add	sp, #12
 8001c86:	e8bd 8ff0 	ldmia.w	sp!, {r4, r5, r6, r7, r8, r9, sl, fp, pc}
 8001c8a:	6812      	ldr	r2, [r2, #0]
 8001c8c:	3b04      	subs	r3, #4
 8001c8e:	2a00      	cmp	r2, #0
 8001c90:	d1ce      	bne.n	8001c30 <quorem+0x9a>
 8001c92:	3c01      	subs	r4, #1
 8001c94:	e7c9      	b.n	8001c2a <quorem+0x94>
 8001c96:	6812      	ldr	r2, [r2, #0]
 8001c98:	3b04      	subs	r3, #4
 8001c9a:	2a00      	cmp	r2, #0
 8001c9c:	d1f0      	bne.n	8001c80 <quorem+0xea>
 8001c9e:	3c01      	subs	r4, #1
 8001ca0:	e7eb      	b.n	8001c7a <quorem+0xe4>
 8001ca2:	2000      	movs	r0, #0
 8001ca4:	e7ee      	b.n	8001c84 <quorem+0xee>
	...

08001ca8 <_dtoa_r>:
 8001ca8:	e92d 4ff0 	stmdb	sp!, {r4, r5, r6, r7, r8, r9, sl, fp, lr}
 8001cac:	ed2d 8b04 	vpush	{d8-d9}
 8001cb0:	69c5      	ldr	r5, [r0, #28]
 8001cb2:	b093      	sub	sp, #76	; 0x4c
 8001cb4:	ed8d 0b02 	vstr	d0, [sp, #8]
 8001cb8:	ec57 6b10 	vmov	r6, r7, d0
 8001cbc:	f8dd 8080 	ldr.w	r8, [sp, #128]	; 0x80
 8001cc0:	9107      	str	r1, [sp, #28]
 8001cc2:	4604      	mov	r4, r0
 8001cc4:	920a      	str	r2, [sp, #40]	; 0x28
 8001cc6:	930d      	str	r3, [sp, #52]	; 0x34
 8001cc8:	b975      	cbnz	r5, 8001ce8 <_dtoa_r+0x40>
 8001cca:	2010      	movs	r0, #16
 8001ccc:	f000 fe2a 	bl	8002924 <malloc>
 8001cd0:	4602      	mov	r2, r0
 8001cd2:	61e0      	str	r0, [r4, #28]
 8001cd4:	b920      	cbnz	r0, 8001ce0 <_dtoa_r+0x38>
 8001cd6:	4bae      	ldr	r3, [pc, #696]	; (8001f90 <_dtoa_r+0x2e8>)
 8001cd8:	21ef      	movs	r1, #239	; 0xef
 8001cda:	48ae      	ldr	r0, [pc, #696]	; (8001f94 <_dtoa_r+0x2ec>)
 8001cdc:	f001 fcf8 	bl	80036d0 <__assert_func>
 8001ce0:	e9c0 5501 	strd	r5, r5, [r0, #4]
 8001ce4:	6005      	str	r5, [r0, #0]
 8001ce6:	60c5      	str	r5, [r0, #12]
 8001ce8:	69e3      	ldr	r3, [r4, #28]
 8001cea:	6819      	ldr	r1, [r3, #0]
 8001cec:	b151      	cbz	r1, 8001d04 <_dtoa_r+0x5c>
 8001cee:	685a      	ldr	r2, [r3, #4]
 8001cf0:	604a      	str	r2, [r1, #4]
 8001cf2:	2301      	movs	r3, #1
 8001cf4:	4093      	lsls	r3, r2
 8001cf6:	608b      	str	r3, [r1, #8]
 8001cf8:	4620      	mov	r0, r4
 8001cfa:	f000 ff07 	bl	8002b0c <_Bfree>
 8001cfe:	69e3      	ldr	r3, [r4, #28]
 8001d00:	2200      	movs	r2, #0
 8001d02:	601a      	str	r2, [r3, #0]
 8001d04:	1e3b      	subs	r3, r7, #0
 8001d06:	bfbb      	ittet	lt
 8001d08:	f023 4300 	biclt.w	r3, r3, #2147483648	; 0x80000000
 8001d0c:	9303      	strlt	r3, [sp, #12]
 8001d0e:	2300      	movge	r3, #0
 8001d10:	2201      	movlt	r2, #1
 8001d12:	bfac      	ite	ge
 8001d14:	f8c8 3000 	strge.w	r3, [r8]
 8001d18:	f8c8 2000 	strlt.w	r2, [r8]
 8001d1c:	4b9e      	ldr	r3, [pc, #632]	; (8001f98 <_dtoa_r+0x2f0>)
 8001d1e:	f8dd 800c 	ldr.w	r8, [sp, #12]
 8001d22:	ea33 0308 	bics.w	r3, r3, r8
 8001d26:	d11b      	bne.n	8001d60 <_dtoa_r+0xb8>
 8001d28:	9a0d      	ldr	r2, [sp, #52]	; 0x34
 8001d2a:	f242 730f 	movw	r3, #9999	; 0x270f
 8001d2e:	6013      	str	r3, [r2, #0]
 8001d30:	f3c8 0313 	ubfx	r3, r8, #0, #20
 8001d34:	4333      	orrs	r3, r6
 8001d36:	f000 8593 	beq.w	8002860 <_dtoa_r+0xbb8>
 8001d3a:	9b21      	ldr	r3, [sp, #132]	; 0x84
 8001d3c:	b963      	cbnz	r3, 8001d58 <_dtoa_r+0xb0>
 8001d3e:	4b97      	ldr	r3, [pc, #604]	; (8001f9c <_dtoa_r+0x2f4>)
 8001d40:	e027      	b.n	8001d92 <_dtoa_r+0xea>
 8001d42:	4b97      	ldr	r3, [pc, #604]	; (8001fa0 <_dtoa_r+0x2f8>)
 8001d44:	9300      	str	r3, [sp, #0]
 8001d46:	3308      	adds	r3, #8
 8001d48:	9a21      	ldr	r2, [sp, #132]	; 0x84
 8001d4a:	6013      	str	r3, [r2, #0]
 8001d4c:	9800      	ldr	r0, [sp, #0]
 8001d4e:	b013      	add	sp, #76	; 0x4c
 8001d50:	ecbd 8b04 	vpop	{d8-d9}
 8001d54:	e8bd 8ff0 	ldmia.w	sp!, {r4, r5, r6, r7, r8, r9, sl, fp, pc}
 8001d58:	4b90      	ldr	r3, [pc, #576]	; (8001f9c <_dtoa_r+0x2f4>)
 8001d5a:	9300      	str	r3, [sp, #0]
 8001d5c:	3303      	adds	r3, #3
 8001d5e:	e7f3      	b.n	8001d48 <_dtoa_r+0xa0>
 8001d60:	ed9d 7b02 	vldr	d7, [sp, #8]
 8001d64:	2200      	movs	r2, #0
 8001d66:	ec51 0b17 	vmov	r0, r1, d7
 8001d6a:	eeb0 8a47 	vmov.f32	s16, s14
 8001d6e:	eef0 8a67 	vmov.f32	s17, s15
 8001d72:	2300      	movs	r3, #0
 8001d74:	f7fe feb0 	bl	8000ad8 <__aeabi_dcmpeq>
 8001d78:	4681      	mov	r9, r0
 8001d7a:	b160      	cbz	r0, 8001d96 <_dtoa_r+0xee>
 8001d7c:	9a0d      	ldr	r2, [sp, #52]	; 0x34
 8001d7e:	2301      	movs	r3, #1
 8001d80:	6013      	str	r3, [r2, #0]
 8001d82:	9b21      	ldr	r3, [sp, #132]	; 0x84
 8001d84:	2b00      	cmp	r3, #0
 8001d86:	f000 8568 	beq.w	800285a <_dtoa_r+0xbb2>
 8001d8a:	4b86      	ldr	r3, [pc, #536]	; (8001fa4 <_dtoa_r+0x2fc>)
 8001d8c:	9a21      	ldr	r2, [sp, #132]	; 0x84
 8001d8e:	6013      	str	r3, [r2, #0]
 8001d90:	3b01      	subs	r3, #1
 8001d92:	9300      	str	r3, [sp, #0]
 8001d94:	e7da      	b.n	8001d4c <_dtoa_r+0xa4>
 8001d96:	aa10      	add	r2, sp, #64	; 0x40
 8001d98:	a911      	add	r1, sp, #68	; 0x44
 8001d9a:	4620      	mov	r0, r4
 8001d9c:	eeb0 0a48 	vmov.f32	s0, s16
 8001da0:	eef0 0a68 	vmov.f32	s1, s17
 8001da4:	f001 f994 	bl	80030d0 <__d2b>
 8001da8:	f3c8 550a 	ubfx	r5, r8, #20, #11
 8001dac:	4682      	mov	sl, r0
 8001dae:	2d00      	cmp	r5, #0
 8001db0:	d07f      	beq.n	8001eb2 <_dtoa_r+0x20a>
 8001db2:	ee18 3a90 	vmov	r3, s17
 8001db6:	f3c3 0313 	ubfx	r3, r3, #0, #20
 8001dba:	f043 537f 	orr.w	r3, r3, #1069547520	; 0x3fc00000
 8001dbe:	ec51 0b18 	vmov	r0, r1, d8
 8001dc2:	f443 1340 	orr.w	r3, r3, #3145728	; 0x300000
 8001dc6:	f2a5 35ff 	subw	r5, r5, #1023	; 0x3ff
 8001dca:	f8cd 9038 	str.w	r9, [sp, #56]	; 0x38
 8001dce:	4619      	mov	r1, r3
 8001dd0:	2200      	movs	r2, #0
 8001dd2:	4b75      	ldr	r3, [pc, #468]	; (8001fa8 <_dtoa_r+0x300>)
 8001dd4:	f7fe fa60 	bl	8000298 <__aeabi_dsub>
 8001dd8:	a367      	add	r3, pc, #412	; (adr r3, 8001f78 <_dtoa_r+0x2d0>)
 8001dda:	e9d3 2300 	ldrd	r2, r3, [r3]
 8001dde:	f7fe fc13 	bl	8000608 <__aeabi_dmul>
 8001de2:	a367      	add	r3, pc, #412	; (adr r3, 8001f80 <_dtoa_r+0x2d8>)
 8001de4:	e9d3 2300 	ldrd	r2, r3, [r3]
 8001de8:	f7fe fa58 	bl	800029c <__adddf3>
 8001dec:	4606      	mov	r6, r0
 8001dee:	4628      	mov	r0, r5
 8001df0:	460f      	mov	r7, r1
 8001df2:	f7fe fb9f 	bl	8000534 <__aeabi_i2d>
 8001df6:	a364      	add	r3, pc, #400	; (adr r3, 8001f88 <_dtoa_r+0x2e0>)
 8001df8:	e9d3 2300 	ldrd	r2, r3, [r3]
 8001dfc:	f7fe fc04 	bl	8000608 <__aeabi_dmul>
 8001e00:	4602      	mov	r2, r0
 8001e02:	460b      	mov	r3, r1
 8001e04:	4630      	mov	r0, r6
 8001e06:	4639      	mov	r1, r7
 8001e08:	f7fe fa48 	bl	800029c <__adddf3>
 8001e0c:	4606      	mov	r6, r0
 8001e0e:	460f      	mov	r7, r1
 8001e10:	f7fe feaa 	bl	8000b68 <__aeabi_d2iz>
 8001e14:	2200      	movs	r2, #0
 8001e16:	4683      	mov	fp, r0
 8001e18:	2300      	movs	r3, #0
 8001e1a:	4630      	mov	r0, r6
 8001e1c:	4639      	mov	r1, r7
 8001e1e:	f7fe fe65 	bl	8000aec <__aeabi_dcmplt>
 8001e22:	b148      	cbz	r0, 8001e38 <_dtoa_r+0x190>
 8001e24:	4658      	mov	r0, fp
 8001e26:	f7fe fb85 	bl	8000534 <__aeabi_i2d>
 8001e2a:	4632      	mov	r2, r6
 8001e2c:	463b      	mov	r3, r7
 8001e2e:	f7fe fe53 	bl	8000ad8 <__aeabi_dcmpeq>
 8001e32:	b908      	cbnz	r0, 8001e38 <_dtoa_r+0x190>
 8001e34:	f10b 3bff 	add.w	fp, fp, #4294967295
 8001e38:	f1bb 0f16 	cmp.w	fp, #22
 8001e3c:	d857      	bhi.n	8001eee <_dtoa_r+0x246>
 8001e3e:	4b5b      	ldr	r3, [pc, #364]	; (8001fac <_dtoa_r+0x304>)
 8001e40:	eb03 03cb 	add.w	r3, r3, fp, lsl #3
 8001e44:	e9d3 2300 	ldrd	r2, r3, [r3]
 8001e48:	ec51 0b18 	vmov	r0, r1, d8
 8001e4c:	f7fe fe4e 	bl	8000aec <__aeabi_dcmplt>
 8001e50:	2800      	cmp	r0, #0
 8001e52:	d04e      	beq.n	8001ef2 <_dtoa_r+0x24a>
 8001e54:	f10b 3bff 	add.w	fp, fp, #4294967295
 8001e58:	2300      	movs	r3, #0
 8001e5a:	930c      	str	r3, [sp, #48]	; 0x30
 8001e5c:	9b10      	ldr	r3, [sp, #64]	; 0x40
 8001e5e:	1b5b      	subs	r3, r3, r5
 8001e60:	1e5a      	subs	r2, r3, #1
 8001e62:	bf45      	ittet	mi
 8001e64:	f1c3 0301 	rsbmi	r3, r3, #1
 8001e68:	9305      	strmi	r3, [sp, #20]
 8001e6a:	2300      	movpl	r3, #0
 8001e6c:	2300      	movmi	r3, #0
 8001e6e:	9206      	str	r2, [sp, #24]
 8001e70:	bf54      	ite	pl
 8001e72:	9305      	strpl	r3, [sp, #20]
 8001e74:	9306      	strmi	r3, [sp, #24]
 8001e76:	f1bb 0f00 	cmp.w	fp, #0
 8001e7a:	db3c      	blt.n	8001ef6 <_dtoa_r+0x24e>
 8001e7c:	9b06      	ldr	r3, [sp, #24]
 8001e7e:	f8cd b02c 	str.w	fp, [sp, #44]	; 0x2c
 8001e82:	445b      	add	r3, fp
 8001e84:	9306      	str	r3, [sp, #24]
 8001e86:	2300      	movs	r3, #0
 8001e88:	9308      	str	r3, [sp, #32]
 8001e8a:	9b07      	ldr	r3, [sp, #28]
 8001e8c:	2b09      	cmp	r3, #9
 8001e8e:	d868      	bhi.n	8001f62 <_dtoa_r+0x2ba>
 8001e90:	2b05      	cmp	r3, #5
 8001e92:	bfc4      	itt	gt
 8001e94:	3b04      	subgt	r3, #4
 8001e96:	9307      	strgt	r3, [sp, #28]
 8001e98:	9b07      	ldr	r3, [sp, #28]
 8001e9a:	f1a3 0302 	sub.w	r3, r3, #2
 8001e9e:	bfcc      	ite	gt
 8001ea0:	2500      	movgt	r5, #0
 8001ea2:	2501      	movle	r5, #1
 8001ea4:	2b03      	cmp	r3, #3
 8001ea6:	f200 8085 	bhi.w	8001fb4 <_dtoa_r+0x30c>
 8001eaa:	e8df f003 	tbb	[pc, r3]
 8001eae:	3b2e      	.short	0x3b2e
 8001eb0:	5839      	.short	0x5839
 8001eb2:	e9dd 5310 	ldrd	r5, r3, [sp, #64]	; 0x40
 8001eb6:	441d      	add	r5, r3
 8001eb8:	f205 4332 	addw	r3, r5, #1074	; 0x432
 8001ebc:	2b20      	cmp	r3, #32
 8001ebe:	bfc1      	itttt	gt
 8001ec0:	f1c3 0340 	rsbgt	r3, r3, #64	; 0x40
 8001ec4:	fa08 f803 	lslgt.w	r8, r8, r3
 8001ec8:	f205 4312 	addwgt	r3, r5, #1042	; 0x412
 8001ecc:	fa26 f303 	lsrgt.w	r3, r6, r3
 8001ed0:	bfd6      	itet	le
 8001ed2:	f1c3 0320 	rsble	r3, r3, #32
 8001ed6:	ea48 0003 	orrgt.w	r0, r8, r3
 8001eda:	fa06 f003 	lslle.w	r0, r6, r3
 8001ede:	f7fe fb19 	bl	8000514 <__aeabi_ui2d>
 8001ee2:	2201      	movs	r2, #1
 8001ee4:	f1a1 73f8 	sub.w	r3, r1, #32505856	; 0x1f00000
 8001ee8:	3d01      	subs	r5, #1
 8001eea:	920e      	str	r2, [sp, #56]	; 0x38
 8001eec:	e76f      	b.n	8001dce <_dtoa_r+0x126>
 8001eee:	2301      	movs	r3, #1
 8001ef0:	e7b3      	b.n	8001e5a <_dtoa_r+0x1b2>
 8001ef2:	900c      	str	r0, [sp, #48]	; 0x30
 8001ef4:	e7b2      	b.n	8001e5c <_dtoa_r+0x1b4>
 8001ef6:	9b05      	ldr	r3, [sp, #20]
 8001ef8:	eba3 030b 	sub.w	r3, r3, fp
 8001efc:	9305      	str	r3, [sp, #20]
 8001efe:	f1cb 0300 	rsb	r3, fp, #0
 8001f02:	9308      	str	r3, [sp, #32]
 8001f04:	2300      	movs	r3, #0
 8001f06:	930b      	str	r3, [sp, #44]	; 0x2c
 8001f08:	e7bf      	b.n	8001e8a <_dtoa_r+0x1e2>
 8001f0a:	2300      	movs	r3, #0
 8001f0c:	9309      	str	r3, [sp, #36]	; 0x24
 8001f0e:	9b0a      	ldr	r3, [sp, #40]	; 0x28
 8001f10:	2b00      	cmp	r3, #0
 8001f12:	dc52      	bgt.n	8001fba <_dtoa_r+0x312>
 8001f14:	2301      	movs	r3, #1
 8001f16:	9301      	str	r3, [sp, #4]
 8001f18:	9304      	str	r3, [sp, #16]
 8001f1a:	461a      	mov	r2, r3
 8001f1c:	920a      	str	r2, [sp, #40]	; 0x28
 8001f1e:	e00b      	b.n	8001f38 <_dtoa_r+0x290>
 8001f20:	2301      	movs	r3, #1
 8001f22:	e7f3      	b.n	8001f0c <_dtoa_r+0x264>
 8001f24:	2300      	movs	r3, #0
 8001f26:	9309      	str	r3, [sp, #36]	; 0x24
 8001f28:	9b0a      	ldr	r3, [sp, #40]	; 0x28
 8001f2a:	445b      	add	r3, fp
 8001f2c:	9301      	str	r3, [sp, #4]
 8001f2e:	3301      	adds	r3, #1
 8001f30:	2b01      	cmp	r3, #1
 8001f32:	9304      	str	r3, [sp, #16]
 8001f34:	bfb8      	it	lt
 8001f36:	2301      	movlt	r3, #1
 8001f38:	69e0      	ldr	r0, [r4, #28]
 8001f3a:	2100      	movs	r1, #0
 8001f3c:	2204      	movs	r2, #4
 8001f3e:	f102 0614 	add.w	r6, r2, #20
 8001f42:	429e      	cmp	r6, r3
 8001f44:	d93d      	bls.n	8001fc2 <_dtoa_r+0x31a>
 8001f46:	6041      	str	r1, [r0, #4]
 8001f48:	4620      	mov	r0, r4
 8001f4a:	f000 fd9f 	bl	8002a8c <_Balloc>
 8001f4e:	9000      	str	r0, [sp, #0]
 8001f50:	2800      	cmp	r0, #0
 8001f52:	d139      	bne.n	8001fc8 <_dtoa_r+0x320>
 8001f54:	4b16      	ldr	r3, [pc, #88]	; (8001fb0 <_dtoa_r+0x308>)
 8001f56:	4602      	mov	r2, r0
 8001f58:	f240 11af 	movw	r1, #431	; 0x1af
 8001f5c:	e6bd      	b.n	8001cda <_dtoa_r+0x32>
 8001f5e:	2301      	movs	r3, #1
 8001f60:	e7e1      	b.n	8001f26 <_dtoa_r+0x27e>
 8001f62:	2501      	movs	r5, #1
 8001f64:	2300      	movs	r3, #0
 8001f66:	9307      	str	r3, [sp, #28]
 8001f68:	9509      	str	r5, [sp, #36]	; 0x24
 8001f6a:	f04f 33ff 	mov.w	r3, #4294967295
 8001f6e:	9301      	str	r3, [sp, #4]
 8001f70:	9304      	str	r3, [sp, #16]
 8001f72:	2200      	movs	r2, #0
 8001f74:	2312      	movs	r3, #18
 8001f76:	e7d1      	b.n	8001f1c <_dtoa_r+0x274>
 8001f78:	636f4361 	.word	0x636f4361
 8001f7c:	3fd287a7 	.word	0x3fd287a7
 8001f80:	8b60c8b3 	.word	0x8b60c8b3
 8001f84:	3fc68a28 	.word	0x3fc68a28
 8001f88:	509f79fb 	.word	0x509f79fb
 8001f8c:	3fd34413 	.word	0x3fd34413
 8001f90:	080039a9 	.word	0x080039a9
 8001f94:	080039c0 	.word	0x080039c0
 8001f98:	7ff00000 	.word	0x7ff00000
 8001f9c:	080039a5 	.word	0x080039a5
 8001fa0:	0800399c 	.word	0x0800399c
 8001fa4:	08003979 	.word	0x08003979
 8001fa8:	3ff80000 	.word	0x3ff80000
 8001fac:	08003ab0 	.word	0x08003ab0
 8001fb0:	08003a18 	.word	0x08003a18
 8001fb4:	2301      	movs	r3, #1
 8001fb6:	9309      	str	r3, [sp, #36]	; 0x24
 8001fb8:	e7d7      	b.n	8001f6a <_dtoa_r+0x2c2>
 8001fba:	9b0a      	ldr	r3, [sp, #40]	; 0x28
 8001fbc:	9301      	str	r3, [sp, #4]
 8001fbe:	9304      	str	r3, [sp, #16]
 8001fc0:	e7ba      	b.n	8001f38 <_dtoa_r+0x290>
 8001fc2:	3101      	adds	r1, #1
 8001fc4:	0052      	lsls	r2, r2, #1
 8001fc6:	e7ba      	b.n	8001f3e <_dtoa_r+0x296>
 8001fc8:	69e3      	ldr	r3, [r4, #28]
 8001fca:	9a00      	ldr	r2, [sp, #0]
 8001fcc:	601a      	str	r2, [r3, #0]
 8001fce:	9b04      	ldr	r3, [sp, #16]
 8001fd0:	2b0e      	cmp	r3, #14
 8001fd2:	f200 80a8 	bhi.w	8002126 <_dtoa_r+0x47e>
 8001fd6:	2d00      	cmp	r5, #0
 8001fd8:	f000 80a5 	beq.w	8002126 <_dtoa_r+0x47e>
 8001fdc:	f1bb 0f00 	cmp.w	fp, #0
 8001fe0:	dd38      	ble.n	8002054 <_dtoa_r+0x3ac>
 8001fe2:	4bc0      	ldr	r3, [pc, #768]	; (80022e4 <_dtoa_r+0x63c>)
 8001fe4:	f00b 020f 	and.w	r2, fp, #15
 8001fe8:	eb03 03c2 	add.w	r3, r3, r2, lsl #3
 8001fec:	f41b 7f80 	tst.w	fp, #256	; 0x100
 8001ff0:	e9d3 6700 	ldrd	r6, r7, [r3]
 8001ff4:	ea4f 182b 	mov.w	r8, fp, asr #4
 8001ff8:	d019      	beq.n	800202e <_dtoa_r+0x386>
 8001ffa:	4bbb      	ldr	r3, [pc, #748]	; (80022e8 <_dtoa_r+0x640>)
 8001ffc:	ec51 0b18 	vmov	r0, r1, d8
 8002000:	e9d3 2308 	ldrd	r2, r3, [r3, #32]
 8002004:	f7fe fc2a 	bl	800085c <__aeabi_ddiv>
 8002008:	e9cd 0102 	strd	r0, r1, [sp, #8]
 800200c:	f008 080f 	and.w	r8, r8, #15
 8002010:	2503      	movs	r5, #3
 8002012:	f8df 92d4 	ldr.w	r9, [pc, #724]	; 80022e8 <_dtoa_r+0x640>
 8002016:	f1b8 0f00 	cmp.w	r8, #0
 800201a:	d10a      	bne.n	8002032 <_dtoa_r+0x38a>
 800201c:	e9dd 0102 	ldrd	r0, r1, [sp, #8]
 8002020:	4632      	mov	r2, r6
 8002022:	463b      	mov	r3, r7
 8002024:	f7fe fc1a 	bl	800085c <__aeabi_ddiv>
 8002028:	e9cd 0102 	strd	r0, r1, [sp, #8]
 800202c:	e02b      	b.n	8002086 <_dtoa_r+0x3de>
 800202e:	2502      	movs	r5, #2
 8002030:	e7ef      	b.n	8002012 <_dtoa_r+0x36a>
 8002032:	f018 0f01 	tst.w	r8, #1
 8002036:	d008      	beq.n	800204a <_dtoa_r+0x3a2>
 8002038:	4630      	mov	r0, r6
 800203a:	4639      	mov	r1, r7
 800203c:	e9d9 2300 	ldrd	r2, r3, [r9]
 8002040:	f7fe fae2 	bl	8000608 <__aeabi_dmul>
 8002044:	3501      	adds	r5, #1
 8002046:	4606      	mov	r6, r0
 8002048:	460f      	mov	r7, r1
 800204a:	ea4f 0868 	mov.w	r8, r8, asr #1
 800204e:	f109 0908 	add.w	r9, r9, #8
 8002052:	e7e0      	b.n	8002016 <_dtoa_r+0x36e>
 8002054:	f000 809f 	beq.w	8002196 <_dtoa_r+0x4ee>
 8002058:	f1cb 0600 	rsb	r6, fp, #0
 800205c:	4ba1      	ldr	r3, [pc, #644]	; (80022e4 <_dtoa_r+0x63c>)
 800205e:	4fa2      	ldr	r7, [pc, #648]	; (80022e8 <_dtoa_r+0x640>)
 8002060:	f006 020f 	and.w	r2, r6, #15
 8002064:	eb03 03c2 	add.w	r3, r3, r2, lsl #3
 8002068:	e9d3 2300 	ldrd	r2, r3, [r3]
 800206c:	ec51 0b18 	vmov	r0, r1, d8
 8002070:	f7fe faca 	bl	8000608 <__aeabi_dmul>
 8002074:	e9cd 0102 	strd	r0, r1, [sp, #8]
 8002078:	1136      	asrs	r6, r6, #4
 800207a:	2300      	movs	r3, #0
 800207c:	2502      	movs	r5, #2
 800207e:	2e00      	cmp	r6, #0
 8002080:	d17e      	bne.n	8002180 <_dtoa_r+0x4d8>
 8002082:	2b00      	cmp	r3, #0
 8002084:	d1d0      	bne.n	8002028 <_dtoa_r+0x380>
 8002086:	9b0c      	ldr	r3, [sp, #48]	; 0x30
 8002088:	e9dd 8902 	ldrd	r8, r9, [sp, #8]
 800208c:	2b00      	cmp	r3, #0
 800208e:	f000 8084 	beq.w	800219a <_dtoa_r+0x4f2>
 8002092:	4b96      	ldr	r3, [pc, #600]	; (80022ec <_dtoa_r+0x644>)
 8002094:	2200      	movs	r2, #0
 8002096:	4640      	mov	r0, r8
 8002098:	4649      	mov	r1, r9
 800209a:	f7fe fd27 	bl	8000aec <__aeabi_dcmplt>
 800209e:	2800      	cmp	r0, #0
 80020a0:	d07b      	beq.n	800219a <_dtoa_r+0x4f2>
 80020a2:	9b04      	ldr	r3, [sp, #16]
 80020a4:	2b00      	cmp	r3, #0
 80020a6:	d078      	beq.n	800219a <_dtoa_r+0x4f2>
 80020a8:	9b01      	ldr	r3, [sp, #4]
 80020aa:	2b00      	cmp	r3, #0
 80020ac:	dd39      	ble.n	8002122 <_dtoa_r+0x47a>
 80020ae:	4b90      	ldr	r3, [pc, #576]	; (80022f0 <_dtoa_r+0x648>)
 80020b0:	2200      	movs	r2, #0
 80020b2:	4640      	mov	r0, r8
 80020b4:	4649      	mov	r1, r9
 80020b6:	f7fe faa7 	bl	8000608 <__aeabi_dmul>
 80020ba:	e9cd 0102 	strd	r0, r1, [sp, #8]
 80020be:	9e01      	ldr	r6, [sp, #4]
 80020c0:	f10b 37ff 	add.w	r7, fp, #4294967295
 80020c4:	3501      	adds	r5, #1
 80020c6:	e9dd 8902 	ldrd	r8, r9, [sp, #8]
 80020ca:	4628      	mov	r0, r5
 80020cc:	f7fe fa32 	bl	8000534 <__aeabi_i2d>
 80020d0:	4642      	mov	r2, r8
 80020d2:	464b      	mov	r3, r9
 80020d4:	f7fe fa98 	bl	8000608 <__aeabi_dmul>
 80020d8:	4b86      	ldr	r3, [pc, #536]	; (80022f4 <_dtoa_r+0x64c>)
 80020da:	2200      	movs	r2, #0
 80020dc:	f7fe f8de 	bl	800029c <__adddf3>
 80020e0:	f1a1 7350 	sub.w	r3, r1, #54525952	; 0x3400000
 80020e4:	e9cd 0102 	strd	r0, r1, [sp, #8]
 80020e8:	9303      	str	r3, [sp, #12]
 80020ea:	2e00      	cmp	r6, #0
 80020ec:	d158      	bne.n	80021a0 <_dtoa_r+0x4f8>
 80020ee:	4b82      	ldr	r3, [pc, #520]	; (80022f8 <_dtoa_r+0x650>)
 80020f0:	2200      	movs	r2, #0
 80020f2:	4640      	mov	r0, r8
 80020f4:	4649      	mov	r1, r9
 80020f6:	f7fe f8cf 	bl	8000298 <__aeabi_dsub>
 80020fa:	e9dd 2302 	ldrd	r2, r3, [sp, #8]
 80020fe:	4680      	mov	r8, r0
 8002100:	4689      	mov	r9, r1
 8002102:	f7fe fd11 	bl	8000b28 <__aeabi_dcmpgt>
 8002106:	2800      	cmp	r0, #0
 8002108:	f040 8296 	bne.w	8002638 <_dtoa_r+0x990>
 800210c:	e9dd 2102 	ldrd	r2, r1, [sp, #8]
 8002110:	4640      	mov	r0, r8
 8002112:	f101 4300 	add.w	r3, r1, #2147483648	; 0x80000000
 8002116:	4649      	mov	r1, r9
 8002118:	f7fe fce8 	bl	8000aec <__aeabi_dcmplt>
 800211c:	2800      	cmp	r0, #0
 800211e:	f040 8289 	bne.w	8002634 <_dtoa_r+0x98c>
 8002122:	ed8d 8b02 	vstr	d8, [sp, #8]
 8002126:	9b11      	ldr	r3, [sp, #68]	; 0x44
 8002128:	2b00      	cmp	r3, #0
 800212a:	f2c0 814e 	blt.w	80023ca <_dtoa_r+0x722>
 800212e:	f1bb 0f0e 	cmp.w	fp, #14
 8002132:	f300 814a 	bgt.w	80023ca <_dtoa_r+0x722>
 8002136:	4b6b      	ldr	r3, [pc, #428]	; (80022e4 <_dtoa_r+0x63c>)
 8002138:	eb03 03cb 	add.w	r3, r3, fp, lsl #3
 800213c:	e9d3 8900 	ldrd	r8, r9, [r3]
 8002140:	9b0a      	ldr	r3, [sp, #40]	; 0x28
 8002142:	2b00      	cmp	r3, #0
 8002144:	f280 80dc 	bge.w	8002300 <_dtoa_r+0x658>
 8002148:	9b04      	ldr	r3, [sp, #16]
 800214a:	2b00      	cmp	r3, #0
 800214c:	f300 80d8 	bgt.w	8002300 <_dtoa_r+0x658>
 8002150:	f040 826f 	bne.w	8002632 <_dtoa_r+0x98a>
 8002154:	4b68      	ldr	r3, [pc, #416]	; (80022f8 <_dtoa_r+0x650>)
 8002156:	2200      	movs	r2, #0
 8002158:	4640      	mov	r0, r8
 800215a:	4649      	mov	r1, r9
 800215c:	f7fe fa54 	bl	8000608 <__aeabi_dmul>
 8002160:	e9dd 2302 	ldrd	r2, r3, [sp, #8]
 8002164:	f7fe fcd6 	bl	8000b14 <__aeabi_dcmpge>
 8002168:	9e04      	ldr	r6, [sp, #16]
 800216a:	4637      	mov	r7, r6
 800216c:	2800      	cmp	r0, #0
 800216e:	f040 8245 	bne.w	80025fc <_dtoa_r+0x954>
 8002172:	9d00      	ldr	r5, [sp, #0]
 8002174:	2331      	movs	r3, #49	; 0x31
 8002176:	f805 3b01 	strb.w	r3, [r5], #1
 800217a:	f10b 0b01 	add.w	fp, fp, #1
 800217e:	e241      	b.n	8002604 <_dtoa_r+0x95c>
 8002180:	07f2      	lsls	r2, r6, #31
 8002182:	d505      	bpl.n	8002190 <_dtoa_r+0x4e8>
 8002184:	e9d7 2300 	ldrd	r2, r3, [r7]
 8002188:	f7fe fa3e 	bl	8000608 <__aeabi_dmul>
 800218c:	3501      	adds	r5, #1
 800218e:	2301      	movs	r3, #1
 8002190:	1076      	asrs	r6, r6, #1
 8002192:	3708      	adds	r7, #8
 8002194:	e773      	b.n	800207e <_dtoa_r+0x3d6>
 8002196:	2502      	movs	r5, #2
 8002198:	e775      	b.n	8002086 <_dtoa_r+0x3de>
 800219a:	9e04      	ldr	r6, [sp, #16]
 800219c:	465f      	mov	r7, fp
 800219e:	e792      	b.n	80020c6 <_dtoa_r+0x41e>
 80021a0:	9900      	ldr	r1, [sp, #0]
 80021a2:	4b50      	ldr	r3, [pc, #320]	; (80022e4 <_dtoa_r+0x63c>)
 80021a4:	ed9d 7b02 	vldr	d7, [sp, #8]
 80021a8:	4431      	add	r1, r6
 80021aa:	9102      	str	r1, [sp, #8]
 80021ac:	9909      	ldr	r1, [sp, #36]	; 0x24
 80021ae:	eeb0 9a47 	vmov.f32	s18, s14
 80021b2:	eef0 9a67 	vmov.f32	s19, s15
 80021b6:	eb03 03c6 	add.w	r3, r3, r6, lsl #3
 80021ba:	e953 2302 	ldrd	r2, r3, [r3, #-8]
 80021be:	2900      	cmp	r1, #0
 80021c0:	d044      	beq.n	800224c <_dtoa_r+0x5a4>
 80021c2:	494e      	ldr	r1, [pc, #312]	; (80022fc <_dtoa_r+0x654>)
 80021c4:	2000      	movs	r0, #0
 80021c6:	f7fe fb49 	bl	800085c <__aeabi_ddiv>
 80021ca:	ec53 2b19 	vmov	r2, r3, d9
 80021ce:	f7fe f863 	bl	8000298 <__aeabi_dsub>
 80021d2:	9d00      	ldr	r5, [sp, #0]
 80021d4:	ec41 0b19 	vmov	d9, r0, r1
 80021d8:	4649      	mov	r1, r9
 80021da:	4640      	mov	r0, r8
 80021dc:	f7fe fcc4 	bl	8000b68 <__aeabi_d2iz>
 80021e0:	4606      	mov	r6, r0
 80021e2:	f7fe f9a7 	bl	8000534 <__aeabi_i2d>
 80021e6:	4602      	mov	r2, r0
 80021e8:	460b      	mov	r3, r1
 80021ea:	4640      	mov	r0, r8
 80021ec:	4649      	mov	r1, r9
 80021ee:	f7fe f853 	bl	8000298 <__aeabi_dsub>
 80021f2:	3630      	adds	r6, #48	; 0x30
 80021f4:	f805 6b01 	strb.w	r6, [r5], #1
 80021f8:	ec53 2b19 	vmov	r2, r3, d9
 80021fc:	4680      	mov	r8, r0
 80021fe:	4689      	mov	r9, r1
 8002200:	f7fe fc74 	bl	8000aec <__aeabi_dcmplt>
 8002204:	2800      	cmp	r0, #0
 8002206:	d164      	bne.n	80022d2 <_dtoa_r+0x62a>
 8002208:	4642      	mov	r2, r8
 800220a:	464b      	mov	r3, r9
 800220c:	4937      	ldr	r1, [pc, #220]	; (80022ec <_dtoa_r+0x644>)
 800220e:	2000      	movs	r0, #0
 8002210:	f7fe f842 	bl	8000298 <__aeabi_dsub>
 8002214:	ec53 2b19 	vmov	r2, r3, d9
 8002218:	f7fe fc68 	bl	8000aec <__aeabi_dcmplt>
 800221c:	2800      	cmp	r0, #0
 800221e:	f040 80b6 	bne.w	800238e <_dtoa_r+0x6e6>
 8002222:	9b02      	ldr	r3, [sp, #8]
 8002224:	429d      	cmp	r5, r3
 8002226:	f43f af7c 	beq.w	8002122 <_dtoa_r+0x47a>
 800222a:	4b31      	ldr	r3, [pc, #196]	; (80022f0 <_dtoa_r+0x648>)
 800222c:	ec51 0b19 	vmov	r0, r1, d9
 8002230:	2200      	movs	r2, #0
 8002232:	f7fe f9e9 	bl	8000608 <__aeabi_dmul>
 8002236:	4b2e      	ldr	r3, [pc, #184]	; (80022f0 <_dtoa_r+0x648>)
 8002238:	ec41 0b19 	vmov	d9, r0, r1
 800223c:	2200      	movs	r2, #0
 800223e:	4640      	mov	r0, r8
 8002240:	4649      	mov	r1, r9
 8002242:	f7fe f9e1 	bl	8000608 <__aeabi_dmul>
 8002246:	4680      	mov	r8, r0
 8002248:	4689      	mov	r9, r1
 800224a:	e7c5      	b.n	80021d8 <_dtoa_r+0x530>
 800224c:	ec51 0b17 	vmov	r0, r1, d7
 8002250:	f7fe f9da 	bl	8000608 <__aeabi_dmul>
 8002254:	9b02      	ldr	r3, [sp, #8]
 8002256:	9d00      	ldr	r5, [sp, #0]
 8002258:	930f      	str	r3, [sp, #60]	; 0x3c
 800225a:	ec41 0b19 	vmov	d9, r0, r1
 800225e:	4649      	mov	r1, r9
 8002260:	4640      	mov	r0, r8
 8002262:	f7fe fc81 	bl	8000b68 <__aeabi_d2iz>
 8002266:	4606      	mov	r6, r0
 8002268:	f7fe f964 	bl	8000534 <__aeabi_i2d>
 800226c:	3630      	adds	r6, #48	; 0x30
 800226e:	4602      	mov	r2, r0
 8002270:	460b      	mov	r3, r1
 8002272:	4640      	mov	r0, r8
 8002274:	4649      	mov	r1, r9
 8002276:	f7fe f80f 	bl	8000298 <__aeabi_dsub>
 800227a:	f805 6b01 	strb.w	r6, [r5], #1
 800227e:	9b02      	ldr	r3, [sp, #8]
 8002280:	429d      	cmp	r5, r3
 8002282:	4680      	mov	r8, r0
 8002284:	4689      	mov	r9, r1
 8002286:	f04f 0200 	mov.w	r2, #0
 800228a:	d124      	bne.n	80022d6 <_dtoa_r+0x62e>
 800228c:	4b1b      	ldr	r3, [pc, #108]	; (80022fc <_dtoa_r+0x654>)
 800228e:	ec51 0b19 	vmov	r0, r1, d9
 8002292:	f7fe f803 	bl	800029c <__adddf3>
 8002296:	4602      	mov	r2, r0
 8002298:	460b      	mov	r3, r1
 800229a:	4640      	mov	r0, r8
 800229c:	4649      	mov	r1, r9
 800229e:	f7fe fc43 	bl	8000b28 <__aeabi_dcmpgt>
 80022a2:	2800      	cmp	r0, #0
 80022a4:	d173      	bne.n	800238e <_dtoa_r+0x6e6>
 80022a6:	ec53 2b19 	vmov	r2, r3, d9
 80022aa:	4914      	ldr	r1, [pc, #80]	; (80022fc <_dtoa_r+0x654>)
 80022ac:	2000      	movs	r0, #0
 80022ae:	f7fd fff3 	bl	8000298 <__aeabi_dsub>
 80022b2:	4602      	mov	r2, r0
 80022b4:	460b      	mov	r3, r1
 80022b6:	4640      	mov	r0, r8
 80022b8:	4649      	mov	r1, r9
 80022ba:	f7fe fc17 	bl	8000aec <__aeabi_dcmplt>
 80022be:	2800      	cmp	r0, #0
 80022c0:	f43f af2f 	beq.w	8002122 <_dtoa_r+0x47a>
 80022c4:	9d0f      	ldr	r5, [sp, #60]	; 0x3c
 80022c6:	1e6b      	subs	r3, r5, #1
 80022c8:	930f      	str	r3, [sp, #60]	; 0x3c
 80022ca:	f815 3c01 	ldrb.w	r3, [r5, #-1]
 80022ce:	2b30      	cmp	r3, #48	; 0x30
 80022d0:	d0f8      	beq.n	80022c4 <_dtoa_r+0x61c>
 80022d2:	46bb      	mov	fp, r7
 80022d4:	e04a      	b.n	800236c <_dtoa_r+0x6c4>
 80022d6:	4b06      	ldr	r3, [pc, #24]	; (80022f0 <_dtoa_r+0x648>)
 80022d8:	f7fe f996 	bl	8000608 <__aeabi_dmul>
 80022dc:	4680      	mov	r8, r0
 80022de:	4689      	mov	r9, r1
 80022e0:	e7bd      	b.n	800225e <_dtoa_r+0x5b6>
 80022e2:	bf00      	nop
 80022e4:	08003ab0 	.word	0x08003ab0
 80022e8:	08003a88 	.word	0x08003a88
 80022ec:	3ff00000 	.word	0x3ff00000
 80022f0:	40240000 	.word	0x40240000
 80022f4:	401c0000 	.word	0x401c0000
 80022f8:	40140000 	.word	0x40140000
 80022fc:	3fe00000 	.word	0x3fe00000
 8002300:	e9dd 6702 	ldrd	r6, r7, [sp, #8]
 8002304:	9d00      	ldr	r5, [sp, #0]
 8002306:	4642      	mov	r2, r8
 8002308:	464b      	mov	r3, r9
 800230a:	4630      	mov	r0, r6
 800230c:	4639      	mov	r1, r7
 800230e:	f7fe faa5 	bl	800085c <__aeabi_ddiv>
 8002312:	f7fe fc29 	bl	8000b68 <__aeabi_d2iz>
 8002316:	9001      	str	r0, [sp, #4]
 8002318:	f7fe f90c 	bl	8000534 <__aeabi_i2d>
 800231c:	4642      	mov	r2, r8
 800231e:	464b      	mov	r3, r9
 8002320:	f7fe f972 	bl	8000608 <__aeabi_dmul>
 8002324:	4602      	mov	r2, r0
 8002326:	460b      	mov	r3, r1
 8002328:	4630      	mov	r0, r6
 800232a:	4639      	mov	r1, r7
 800232c:	f7fd ffb4 	bl	8000298 <__aeabi_dsub>
 8002330:	9e01      	ldr	r6, [sp, #4]
 8002332:	9f04      	ldr	r7, [sp, #16]
 8002334:	3630      	adds	r6, #48	; 0x30
 8002336:	f805 6b01 	strb.w	r6, [r5], #1
 800233a:	9e00      	ldr	r6, [sp, #0]
 800233c:	1bae      	subs	r6, r5, r6
 800233e:	42b7      	cmp	r7, r6
 8002340:	4602      	mov	r2, r0
 8002342:	460b      	mov	r3, r1
 8002344:	d134      	bne.n	80023b0 <_dtoa_r+0x708>
 8002346:	f7fd ffa9 	bl	800029c <__adddf3>
 800234a:	4642      	mov	r2, r8
 800234c:	464b      	mov	r3, r9
 800234e:	4606      	mov	r6, r0
 8002350:	460f      	mov	r7, r1
 8002352:	f7fe fbe9 	bl	8000b28 <__aeabi_dcmpgt>
 8002356:	b9c8      	cbnz	r0, 800238c <_dtoa_r+0x6e4>
 8002358:	4642      	mov	r2, r8
 800235a:	464b      	mov	r3, r9
 800235c:	4630      	mov	r0, r6
 800235e:	4639      	mov	r1, r7
 8002360:	f7fe fbba 	bl	8000ad8 <__aeabi_dcmpeq>
 8002364:	b110      	cbz	r0, 800236c <_dtoa_r+0x6c4>
 8002366:	9b01      	ldr	r3, [sp, #4]
 8002368:	07db      	lsls	r3, r3, #31
 800236a:	d40f      	bmi.n	800238c <_dtoa_r+0x6e4>
 800236c:	4651      	mov	r1, sl
 800236e:	4620      	mov	r0, r4
 8002370:	f000 fbcc 	bl	8002b0c <_Bfree>
 8002374:	2300      	movs	r3, #0
 8002376:	9a0d      	ldr	r2, [sp, #52]	; 0x34
 8002378:	702b      	strb	r3, [r5, #0]
 800237a:	f10b 0301 	add.w	r3, fp, #1
 800237e:	6013      	str	r3, [r2, #0]
 8002380:	9b21      	ldr	r3, [sp, #132]	; 0x84
 8002382:	2b00      	cmp	r3, #0
 8002384:	f43f ace2 	beq.w	8001d4c <_dtoa_r+0xa4>
 8002388:	601d      	str	r5, [r3, #0]
 800238a:	e4df      	b.n	8001d4c <_dtoa_r+0xa4>
 800238c:	465f      	mov	r7, fp
 800238e:	462b      	mov	r3, r5
 8002390:	461d      	mov	r5, r3
 8002392:	f813 2d01 	ldrb.w	r2, [r3, #-1]!
 8002396:	2a39      	cmp	r2, #57	; 0x39
 8002398:	d106      	bne.n	80023a8 <_dtoa_r+0x700>
 800239a:	9a00      	ldr	r2, [sp, #0]
 800239c:	429a      	cmp	r2, r3
 800239e:	d1f7      	bne.n	8002390 <_dtoa_r+0x6e8>
 80023a0:	9900      	ldr	r1, [sp, #0]
 80023a2:	2230      	movs	r2, #48	; 0x30
 80023a4:	3701      	adds	r7, #1
 80023a6:	700a      	strb	r2, [r1, #0]
 80023a8:	781a      	ldrb	r2, [r3, #0]
 80023aa:	3201      	adds	r2, #1
 80023ac:	701a      	strb	r2, [r3, #0]
 80023ae:	e790      	b.n	80022d2 <_dtoa_r+0x62a>
 80023b0:	4ba3      	ldr	r3, [pc, #652]	; (8002640 <_dtoa_r+0x998>)
 80023b2:	2200      	movs	r2, #0
 80023b4:	f7fe f928 	bl	8000608 <__aeabi_dmul>
 80023b8:	2200      	movs	r2, #0
 80023ba:	2300      	movs	r3, #0
 80023bc:	4606      	mov	r6, r0
 80023be:	460f      	mov	r7, r1
 80023c0:	f7fe fb8a 	bl	8000ad8 <__aeabi_dcmpeq>
 80023c4:	2800      	cmp	r0, #0
 80023c6:	d09e      	beq.n	8002306 <_dtoa_r+0x65e>
 80023c8:	e7d0      	b.n	800236c <_dtoa_r+0x6c4>
 80023ca:	9a09      	ldr	r2, [sp, #36]	; 0x24
 80023cc:	2a00      	cmp	r2, #0
 80023ce:	f000 80ca 	beq.w	8002566 <_dtoa_r+0x8be>
 80023d2:	9a07      	ldr	r2, [sp, #28]
 80023d4:	2a01      	cmp	r2, #1
 80023d6:	f300 80ad 	bgt.w	8002534 <_dtoa_r+0x88c>
 80023da:	9a0e      	ldr	r2, [sp, #56]	; 0x38
 80023dc:	2a00      	cmp	r2, #0
 80023de:	f000 80a5 	beq.w	800252c <_dtoa_r+0x884>
 80023e2:	f203 4333 	addw	r3, r3, #1075	; 0x433
 80023e6:	9e08      	ldr	r6, [sp, #32]
 80023e8:	9d05      	ldr	r5, [sp, #20]
 80023ea:	9a05      	ldr	r2, [sp, #20]
 80023ec:	441a      	add	r2, r3
 80023ee:	9205      	str	r2, [sp, #20]
 80023f0:	9a06      	ldr	r2, [sp, #24]
 80023f2:	2101      	movs	r1, #1
 80023f4:	441a      	add	r2, r3
 80023f6:	4620      	mov	r0, r4
 80023f8:	9206      	str	r2, [sp, #24]
 80023fa:	f000 fc3d 	bl	8002c78 <__i2b>
 80023fe:	4607      	mov	r7, r0
 8002400:	b165      	cbz	r5, 800241c <_dtoa_r+0x774>
 8002402:	9b06      	ldr	r3, [sp, #24]
 8002404:	2b00      	cmp	r3, #0
 8002406:	dd09      	ble.n	800241c <_dtoa_r+0x774>
 8002408:	42ab      	cmp	r3, r5
 800240a:	9a05      	ldr	r2, [sp, #20]
 800240c:	bfa8      	it	ge
 800240e:	462b      	movge	r3, r5
 8002410:	1ad2      	subs	r2, r2, r3
 8002412:	9205      	str	r2, [sp, #20]
 8002414:	9a06      	ldr	r2, [sp, #24]
 8002416:	1aed      	subs	r5, r5, r3
 8002418:	1ad3      	subs	r3, r2, r3
 800241a:	9306      	str	r3, [sp, #24]
 800241c:	9b08      	ldr	r3, [sp, #32]
 800241e:	b1f3      	cbz	r3, 800245e <_dtoa_r+0x7b6>
 8002420:	9b09      	ldr	r3, [sp, #36]	; 0x24
 8002422:	2b00      	cmp	r3, #0
 8002424:	f000 80a3 	beq.w	800256e <_dtoa_r+0x8c6>
 8002428:	2e00      	cmp	r6, #0
 800242a:	dd10      	ble.n	800244e <_dtoa_r+0x7a6>
 800242c:	4639      	mov	r1, r7
 800242e:	4632      	mov	r2, r6
 8002430:	4620      	mov	r0, r4
 8002432:	f000 fce1 	bl	8002df8 <__pow5mult>
 8002436:	4652      	mov	r2, sl
 8002438:	4601      	mov	r1, r0
 800243a:	4607      	mov	r7, r0
 800243c:	4620      	mov	r0, r4
 800243e:	f000 fc31 	bl	8002ca4 <__multiply>
 8002442:	4651      	mov	r1, sl
 8002444:	4680      	mov	r8, r0
 8002446:	4620      	mov	r0, r4
 8002448:	f000 fb60 	bl	8002b0c <_Bfree>
 800244c:	46c2      	mov	sl, r8
 800244e:	9b08      	ldr	r3, [sp, #32]
 8002450:	1b9a      	subs	r2, r3, r6
 8002452:	d004      	beq.n	800245e <_dtoa_r+0x7b6>
 8002454:	4651      	mov	r1, sl
 8002456:	4620      	mov	r0, r4
 8002458:	f000 fcce 	bl	8002df8 <__pow5mult>
 800245c:	4682      	mov	sl, r0
 800245e:	2101      	movs	r1, #1
 8002460:	4620      	mov	r0, r4
 8002462:	f000 fc09 	bl	8002c78 <__i2b>
 8002466:	9b0b      	ldr	r3, [sp, #44]	; 0x2c
 8002468:	2b00      	cmp	r3, #0
 800246a:	4606      	mov	r6, r0
 800246c:	f340 8081 	ble.w	8002572 <_dtoa_r+0x8ca>
 8002470:	461a      	mov	r2, r3
 8002472:	4601      	mov	r1, r0
 8002474:	4620      	mov	r0, r4
 8002476:	f000 fcbf 	bl	8002df8 <__pow5mult>
 800247a:	9b07      	ldr	r3, [sp, #28]
 800247c:	2b01      	cmp	r3, #1
 800247e:	4606      	mov	r6, r0
 8002480:	dd7a      	ble.n	8002578 <_dtoa_r+0x8d0>
 8002482:	f04f 0800 	mov.w	r8, #0
 8002486:	6933      	ldr	r3, [r6, #16]
 8002488:	eb06 0383 	add.w	r3, r6, r3, lsl #2
 800248c:	6918      	ldr	r0, [r3, #16]
 800248e:	f000 fba5 	bl	8002bdc <__hi0bits>
 8002492:	f1c0 0020 	rsb	r0, r0, #32
 8002496:	9b06      	ldr	r3, [sp, #24]
 8002498:	4418      	add	r0, r3
 800249a:	f010 001f 	ands.w	r0, r0, #31
 800249e:	f000 8094 	beq.w	80025ca <_dtoa_r+0x922>
 80024a2:	f1c0 0320 	rsb	r3, r0, #32
 80024a6:	2b04      	cmp	r3, #4
 80024a8:	f340 8085 	ble.w	80025b6 <_dtoa_r+0x90e>
 80024ac:	9b05      	ldr	r3, [sp, #20]
 80024ae:	f1c0 001c 	rsb	r0, r0, #28
 80024b2:	4403      	add	r3, r0
 80024b4:	9305      	str	r3, [sp, #20]
 80024b6:	9b06      	ldr	r3, [sp, #24]
 80024b8:	4403      	add	r3, r0
 80024ba:	4405      	add	r5, r0
 80024bc:	9306      	str	r3, [sp, #24]
 80024be:	9b05      	ldr	r3, [sp, #20]
 80024c0:	2b00      	cmp	r3, #0
 80024c2:	dd05      	ble.n	80024d0 <_dtoa_r+0x828>
 80024c4:	4651      	mov	r1, sl
 80024c6:	461a      	mov	r2, r3
 80024c8:	4620      	mov	r0, r4
 80024ca:	f000 fcef 	bl	8002eac <__lshift>
 80024ce:	4682      	mov	sl, r0
 80024d0:	9b06      	ldr	r3, [sp, #24]
 80024d2:	2b00      	cmp	r3, #0
 80024d4:	dd05      	ble.n	80024e2 <_dtoa_r+0x83a>
 80024d6:	4631      	mov	r1, r6
 80024d8:	461a      	mov	r2, r3
 80024da:	4620      	mov	r0, r4
 80024dc:	f000 fce6 	bl	8002eac <__lshift>
 80024e0:	4606      	mov	r6, r0
 80024e2:	9b0c      	ldr	r3, [sp, #48]	; 0x30
 80024e4:	2b00      	cmp	r3, #0
 80024e6:	d072      	beq.n	80025ce <_dtoa_r+0x926>
 80024e8:	4631      	mov	r1, r6
 80024ea:	4650      	mov	r0, sl
 80024ec:	f000 fd4a 	bl	8002f84 <__mcmp>
 80024f0:	2800      	cmp	r0, #0
 80024f2:	da6c      	bge.n	80025ce <_dtoa_r+0x926>
 80024f4:	2300      	movs	r3, #0
 80024f6:	4651      	mov	r1, sl
 80024f8:	220a      	movs	r2, #10
 80024fa:	4620      	mov	r0, r4
 80024fc:	f000 fb28 	bl	8002b50 <__multadd>
 8002500:	9b09      	ldr	r3, [sp, #36]	; 0x24
 8002502:	f10b 3bff 	add.w	fp, fp, #4294967295
 8002506:	4682      	mov	sl, r0
 8002508:	2b00      	cmp	r3, #0
 800250a:	f000 81b0 	beq.w	800286e <_dtoa_r+0xbc6>
 800250e:	2300      	movs	r3, #0
 8002510:	4639      	mov	r1, r7
 8002512:	220a      	movs	r2, #10
 8002514:	4620      	mov	r0, r4
 8002516:	f000 fb1b 	bl	8002b50 <__multadd>
 800251a:	9b01      	ldr	r3, [sp, #4]
 800251c:	2b00      	cmp	r3, #0
 800251e:	4607      	mov	r7, r0
 8002520:	f300 8096 	bgt.w	8002650 <_dtoa_r+0x9a8>
 8002524:	9b07      	ldr	r3, [sp, #28]
 8002526:	2b02      	cmp	r3, #2
 8002528:	dc59      	bgt.n	80025de <_dtoa_r+0x936>
 800252a:	e091      	b.n	8002650 <_dtoa_r+0x9a8>
 800252c:	9b10      	ldr	r3, [sp, #64]	; 0x40
 800252e:	f1c3 0336 	rsb	r3, r3, #54	; 0x36
 8002532:	e758      	b.n	80023e6 <_dtoa_r+0x73e>
 8002534:	9b04      	ldr	r3, [sp, #16]
 8002536:	1e5e      	subs	r6, r3, #1
 8002538:	9b08      	ldr	r3, [sp, #32]
 800253a:	42b3      	cmp	r3, r6
 800253c:	bfbf      	itttt	lt
 800253e:	9b08      	ldrlt	r3, [sp, #32]
 8002540:	9a0b      	ldrlt	r2, [sp, #44]	; 0x2c
 8002542:	9608      	strlt	r6, [sp, #32]
 8002544:	1af3      	sublt	r3, r6, r3
 8002546:	bfb4      	ite	lt
 8002548:	18d2      	addlt	r2, r2, r3
 800254a:	1b9e      	subge	r6, r3, r6
 800254c:	9b04      	ldr	r3, [sp, #16]
 800254e:	bfbc      	itt	lt
 8002550:	920b      	strlt	r2, [sp, #44]	; 0x2c
 8002552:	2600      	movlt	r6, #0
 8002554:	2b00      	cmp	r3, #0
 8002556:	bfb7      	itett	lt
 8002558:	e9dd 2304 	ldrdlt	r2, r3, [sp, #16]
 800255c:	e9dd 3504 	ldrdge	r3, r5, [sp, #16]
 8002560:	1a9d      	sublt	r5, r3, r2
 8002562:	2300      	movlt	r3, #0
 8002564:	e741      	b.n	80023ea <_dtoa_r+0x742>
 8002566:	9e08      	ldr	r6, [sp, #32]
 8002568:	9d05      	ldr	r5, [sp, #20]
 800256a:	9f09      	ldr	r7, [sp, #36]	; 0x24
 800256c:	e748      	b.n	8002400 <_dtoa_r+0x758>
 800256e:	9a08      	ldr	r2, [sp, #32]
 8002570:	e770      	b.n	8002454 <_dtoa_r+0x7ac>
 8002572:	9b07      	ldr	r3, [sp, #28]
 8002574:	2b01      	cmp	r3, #1
 8002576:	dc19      	bgt.n	80025ac <_dtoa_r+0x904>
 8002578:	9b02      	ldr	r3, [sp, #8]
 800257a:	b9bb      	cbnz	r3, 80025ac <_dtoa_r+0x904>
 800257c:	9b03      	ldr	r3, [sp, #12]
 800257e:	f3c3 0313 	ubfx	r3, r3, #0, #20
 8002582:	b99b      	cbnz	r3, 80025ac <_dtoa_r+0x904>
 8002584:	9b03      	ldr	r3, [sp, #12]
 8002586:	f023 4300 	bic.w	r3, r3, #2147483648	; 0x80000000
 800258a:	0d1b      	lsrs	r3, r3, #20
 800258c:	051b      	lsls	r3, r3, #20
 800258e:	b183      	cbz	r3, 80025b2 <_dtoa_r+0x90a>
 8002590:	9b05      	ldr	r3, [sp, #20]
 8002592:	3301      	adds	r3, #1
 8002594:	9305      	str	r3, [sp, #20]
 8002596:	9b06      	ldr	r3, [sp, #24]
 8002598:	3301      	adds	r3, #1
 800259a:	9306      	str	r3, [sp, #24]
 800259c:	f04f 0801 	mov.w	r8, #1
 80025a0:	9b0b      	ldr	r3, [sp, #44]	; 0x2c
 80025a2:	2b00      	cmp	r3, #0
 80025a4:	f47f af6f 	bne.w	8002486 <_dtoa_r+0x7de>
 80025a8:	2001      	movs	r0, #1
 80025aa:	e774      	b.n	8002496 <_dtoa_r+0x7ee>
 80025ac:	f04f 0800 	mov.w	r8, #0
 80025b0:	e7f6      	b.n	80025a0 <_dtoa_r+0x8f8>
 80025b2:	4698      	mov	r8, r3
 80025b4:	e7f4      	b.n	80025a0 <_dtoa_r+0x8f8>
 80025b6:	d082      	beq.n	80024be <_dtoa_r+0x816>
 80025b8:	9a05      	ldr	r2, [sp, #20]
 80025ba:	331c      	adds	r3, #28
 80025bc:	441a      	add	r2, r3
 80025be:	9205      	str	r2, [sp, #20]
 80025c0:	9a06      	ldr	r2, [sp, #24]
 80025c2:	441a      	add	r2, r3
 80025c4:	441d      	add	r5, r3
 80025c6:	9206      	str	r2, [sp, #24]
 80025c8:	e779      	b.n	80024be <_dtoa_r+0x816>
 80025ca:	4603      	mov	r3, r0
 80025cc:	e7f4      	b.n	80025b8 <_dtoa_r+0x910>
 80025ce:	9b04      	ldr	r3, [sp, #16]
 80025d0:	2b00      	cmp	r3, #0
 80025d2:	dc37      	bgt.n	8002644 <_dtoa_r+0x99c>
 80025d4:	9b07      	ldr	r3, [sp, #28]
 80025d6:	2b02      	cmp	r3, #2
 80025d8:	dd34      	ble.n	8002644 <_dtoa_r+0x99c>
 80025da:	9b04      	ldr	r3, [sp, #16]
 80025dc:	9301      	str	r3, [sp, #4]
 80025de:	9b01      	ldr	r3, [sp, #4]
 80025e0:	b963      	cbnz	r3, 80025fc <_dtoa_r+0x954>
 80025e2:	4631      	mov	r1, r6
 80025e4:	2205      	movs	r2, #5
 80025e6:	4620      	mov	r0, r4
 80025e8:	f000 fab2 	bl	8002b50 <__multadd>
 80025ec:	4601      	mov	r1, r0
 80025ee:	4606      	mov	r6, r0
 80025f0:	4650      	mov	r0, sl
 80025f2:	f000 fcc7 	bl	8002f84 <__mcmp>
 80025f6:	2800      	cmp	r0, #0
 80025f8:	f73f adbb 	bgt.w	8002172 <_dtoa_r+0x4ca>
 80025fc:	9b0a      	ldr	r3, [sp, #40]	; 0x28
 80025fe:	9d00      	ldr	r5, [sp, #0]
 8002600:	ea6f 0b03 	mvn.w	fp, r3
 8002604:	f04f 0800 	mov.w	r8, #0
 8002608:	4631      	mov	r1, r6
 800260a:	4620      	mov	r0, r4
 800260c:	f000 fa7e 	bl	8002b0c <_Bfree>
 8002610:	2f00      	cmp	r7, #0
 8002612:	f43f aeab 	beq.w	800236c <_dtoa_r+0x6c4>
 8002616:	f1b8 0f00 	cmp.w	r8, #0
 800261a:	d005      	beq.n	8002628 <_dtoa_r+0x980>
 800261c:	45b8      	cmp	r8, r7
 800261e:	d003      	beq.n	8002628 <_dtoa_r+0x980>
 8002620:	4641      	mov	r1, r8
 8002622:	4620      	mov	r0, r4
 8002624:	f000 fa72 	bl	8002b0c <_Bfree>
 8002628:	4639      	mov	r1, r7
 800262a:	4620      	mov	r0, r4
 800262c:	f000 fa6e 	bl	8002b0c <_Bfree>
 8002630:	e69c      	b.n	800236c <_dtoa_r+0x6c4>
 8002632:	2600      	movs	r6, #0
 8002634:	4637      	mov	r7, r6
 8002636:	e7e1      	b.n	80025fc <_dtoa_r+0x954>
 8002638:	46bb      	mov	fp, r7
 800263a:	4637      	mov	r7, r6
 800263c:	e599      	b.n	8002172 <_dtoa_r+0x4ca>
 800263e:	bf00      	nop
 8002640:	40240000 	.word	0x40240000
 8002644:	9b09      	ldr	r3, [sp, #36]	; 0x24
 8002646:	2b00      	cmp	r3, #0
 8002648:	f000 80c8 	beq.w	80027dc <_dtoa_r+0xb34>
 800264c:	9b04      	ldr	r3, [sp, #16]
 800264e:	9301      	str	r3, [sp, #4]
 8002650:	2d00      	cmp	r5, #0
 8002652:	dd05      	ble.n	8002660 <_dtoa_r+0x9b8>
 8002654:	4639      	mov	r1, r7
 8002656:	462a      	mov	r2, r5
 8002658:	4620      	mov	r0, r4
 800265a:	f000 fc27 	bl	8002eac <__lshift>
 800265e:	4607      	mov	r7, r0
 8002660:	f1b8 0f00 	cmp.w	r8, #0
 8002664:	d05b      	beq.n	800271e <_dtoa_r+0xa76>
 8002666:	6879      	ldr	r1, [r7, #4]
 8002668:	4620      	mov	r0, r4
 800266a:	f000 fa0f 	bl	8002a8c <_Balloc>
 800266e:	4605      	mov	r5, r0
 8002670:	b928      	cbnz	r0, 800267e <_dtoa_r+0x9d6>
 8002672:	4b83      	ldr	r3, [pc, #524]	; (8002880 <_dtoa_r+0xbd8>)
 8002674:	4602      	mov	r2, r0
 8002676:	f240 21ef 	movw	r1, #751	; 0x2ef
 800267a:	f7ff bb2e 	b.w	8001cda <_dtoa_r+0x32>
 800267e:	693a      	ldr	r2, [r7, #16]
 8002680:	3202      	adds	r2, #2
 8002682:	0092      	lsls	r2, r2, #2
 8002684:	f107 010c 	add.w	r1, r7, #12
 8002688:	300c      	adds	r0, #12
 800268a:	f001 f813 	bl	80036b4 <memcpy>
 800268e:	2201      	movs	r2, #1
 8002690:	4629      	mov	r1, r5
 8002692:	4620      	mov	r0, r4
 8002694:	f000 fc0a 	bl	8002eac <__lshift>
 8002698:	9b00      	ldr	r3, [sp, #0]
 800269a:	3301      	adds	r3, #1
 800269c:	9304      	str	r3, [sp, #16]
 800269e:	e9dd 2300 	ldrd	r2, r3, [sp]
 80026a2:	4413      	add	r3, r2
 80026a4:	9308      	str	r3, [sp, #32]
 80026a6:	9b02      	ldr	r3, [sp, #8]
 80026a8:	f003 0301 	and.w	r3, r3, #1
 80026ac:	46b8      	mov	r8, r7
 80026ae:	9306      	str	r3, [sp, #24]
 80026b0:	4607      	mov	r7, r0
 80026b2:	9b04      	ldr	r3, [sp, #16]
 80026b4:	4631      	mov	r1, r6
 80026b6:	3b01      	subs	r3, #1
 80026b8:	4650      	mov	r0, sl
 80026ba:	9301      	str	r3, [sp, #4]
 80026bc:	f7ff fa6b 	bl	8001b96 <quorem>
 80026c0:	4641      	mov	r1, r8
 80026c2:	9002      	str	r0, [sp, #8]
 80026c4:	f100 0930 	add.w	r9, r0, #48	; 0x30
 80026c8:	4650      	mov	r0, sl
 80026ca:	f000 fc5b 	bl	8002f84 <__mcmp>
 80026ce:	463a      	mov	r2, r7
 80026d0:	9005      	str	r0, [sp, #20]
 80026d2:	4631      	mov	r1, r6
 80026d4:	4620      	mov	r0, r4
 80026d6:	f000 fc71 	bl	8002fbc <__mdiff>
 80026da:	68c2      	ldr	r2, [r0, #12]
 80026dc:	4605      	mov	r5, r0
 80026de:	bb02      	cbnz	r2, 8002722 <_dtoa_r+0xa7a>
 80026e0:	4601      	mov	r1, r0
 80026e2:	4650      	mov	r0, sl
 80026e4:	f000 fc4e 	bl	8002f84 <__mcmp>
 80026e8:	4602      	mov	r2, r0
 80026ea:	4629      	mov	r1, r5
 80026ec:	4620      	mov	r0, r4
 80026ee:	9209      	str	r2, [sp, #36]	; 0x24
 80026f0:	f000 fa0c 	bl	8002b0c <_Bfree>
 80026f4:	9b07      	ldr	r3, [sp, #28]
 80026f6:	9a09      	ldr	r2, [sp, #36]	; 0x24
 80026f8:	9d04      	ldr	r5, [sp, #16]
 80026fa:	ea43 0102 	orr.w	r1, r3, r2
 80026fe:	9b06      	ldr	r3, [sp, #24]
 8002700:	4319      	orrs	r1, r3
 8002702:	d110      	bne.n	8002726 <_dtoa_r+0xa7e>
 8002704:	f1b9 0f39 	cmp.w	r9, #57	; 0x39
 8002708:	d029      	beq.n	800275e <_dtoa_r+0xab6>
 800270a:	9b05      	ldr	r3, [sp, #20]
 800270c:	2b00      	cmp	r3, #0
 800270e:	dd02      	ble.n	8002716 <_dtoa_r+0xa6e>
 8002710:	9b02      	ldr	r3, [sp, #8]
 8002712:	f103 0931 	add.w	r9, r3, #49	; 0x31
 8002716:	9b01      	ldr	r3, [sp, #4]
 8002718:	f883 9000 	strb.w	r9, [r3]
 800271c:	e774      	b.n	8002608 <_dtoa_r+0x960>
 800271e:	4638      	mov	r0, r7
 8002720:	e7ba      	b.n	8002698 <_dtoa_r+0x9f0>
 8002722:	2201      	movs	r2, #1
 8002724:	e7e1      	b.n	80026ea <_dtoa_r+0xa42>
 8002726:	9b05      	ldr	r3, [sp, #20]
 8002728:	2b00      	cmp	r3, #0
 800272a:	db04      	blt.n	8002736 <_dtoa_r+0xa8e>
 800272c:	9907      	ldr	r1, [sp, #28]
 800272e:	430b      	orrs	r3, r1
 8002730:	9906      	ldr	r1, [sp, #24]
 8002732:	430b      	orrs	r3, r1
 8002734:	d120      	bne.n	8002778 <_dtoa_r+0xad0>
 8002736:	2a00      	cmp	r2, #0
 8002738:	dded      	ble.n	8002716 <_dtoa_r+0xa6e>
 800273a:	4651      	mov	r1, sl
 800273c:	2201      	movs	r2, #1
 800273e:	4620      	mov	r0, r4
 8002740:	f000 fbb4 	bl	8002eac <__lshift>
 8002744:	4631      	mov	r1, r6
 8002746:	4682      	mov	sl, r0
 8002748:	f000 fc1c 	bl	8002f84 <__mcmp>
 800274c:	2800      	cmp	r0, #0
 800274e:	dc03      	bgt.n	8002758 <_dtoa_r+0xab0>
 8002750:	d1e1      	bne.n	8002716 <_dtoa_r+0xa6e>
 8002752:	f019 0f01 	tst.w	r9, #1
 8002756:	d0de      	beq.n	8002716 <_dtoa_r+0xa6e>
 8002758:	f1b9 0f39 	cmp.w	r9, #57	; 0x39
 800275c:	d1d8      	bne.n	8002710 <_dtoa_r+0xa68>
 800275e:	9a01      	ldr	r2, [sp, #4]
 8002760:	2339      	movs	r3, #57	; 0x39
 8002762:	7013      	strb	r3, [r2, #0]
 8002764:	462b      	mov	r3, r5
 8002766:	461d      	mov	r5, r3
 8002768:	3b01      	subs	r3, #1
 800276a:	f815 2c01 	ldrb.w	r2, [r5, #-1]
 800276e:	2a39      	cmp	r2, #57	; 0x39
 8002770:	d06c      	beq.n	800284c <_dtoa_r+0xba4>
 8002772:	3201      	adds	r2, #1
 8002774:	701a      	strb	r2, [r3, #0]
 8002776:	e747      	b.n	8002608 <_dtoa_r+0x960>
 8002778:	2a00      	cmp	r2, #0
 800277a:	dd07      	ble.n	800278c <_dtoa_r+0xae4>
 800277c:	f1b9 0f39 	cmp.w	r9, #57	; 0x39
 8002780:	d0ed      	beq.n	800275e <_dtoa_r+0xab6>
 8002782:	9a01      	ldr	r2, [sp, #4]
 8002784:	f109 0301 	add.w	r3, r9, #1
 8002788:	7013      	strb	r3, [r2, #0]
 800278a:	e73d      	b.n	8002608 <_dtoa_r+0x960>
 800278c:	9b04      	ldr	r3, [sp, #16]
 800278e:	9a08      	ldr	r2, [sp, #32]
 8002790:	f803 9c01 	strb.w	r9, [r3, #-1]
 8002794:	4293      	cmp	r3, r2
 8002796:	d043      	beq.n	8002820 <_dtoa_r+0xb78>
 8002798:	4651      	mov	r1, sl
 800279a:	2300      	movs	r3, #0
 800279c:	220a      	movs	r2, #10
 800279e:	4620      	mov	r0, r4
 80027a0:	f000 f9d6 	bl	8002b50 <__multadd>
 80027a4:	45b8      	cmp	r8, r7
 80027a6:	4682      	mov	sl, r0
 80027a8:	f04f 0300 	mov.w	r3, #0
 80027ac:	f04f 020a 	mov.w	r2, #10
 80027b0:	4641      	mov	r1, r8
 80027b2:	4620      	mov	r0, r4
 80027b4:	d107      	bne.n	80027c6 <_dtoa_r+0xb1e>
 80027b6:	f000 f9cb 	bl	8002b50 <__multadd>
 80027ba:	4680      	mov	r8, r0
 80027bc:	4607      	mov	r7, r0
 80027be:	9b04      	ldr	r3, [sp, #16]
 80027c0:	3301      	adds	r3, #1
 80027c2:	9304      	str	r3, [sp, #16]
 80027c4:	e775      	b.n	80026b2 <_dtoa_r+0xa0a>
 80027c6:	f000 f9c3 	bl	8002b50 <__multadd>
 80027ca:	4639      	mov	r1, r7
 80027cc:	4680      	mov	r8, r0
 80027ce:	2300      	movs	r3, #0
 80027d0:	220a      	movs	r2, #10
 80027d2:	4620      	mov	r0, r4
 80027d4:	f000 f9bc 	bl	8002b50 <__multadd>
 80027d8:	4607      	mov	r7, r0
 80027da:	e7f0      	b.n	80027be <_dtoa_r+0xb16>
 80027dc:	9b04      	ldr	r3, [sp, #16]
 80027de:	9301      	str	r3, [sp, #4]
 80027e0:	9d00      	ldr	r5, [sp, #0]
 80027e2:	4631      	mov	r1, r6
 80027e4:	4650      	mov	r0, sl
 80027e6:	f7ff f9d6 	bl	8001b96 <quorem>
 80027ea:	f100 0930 	add.w	r9, r0, #48	; 0x30
 80027ee:	9b00      	ldr	r3, [sp, #0]
 80027f0:	f805 9b01 	strb.w	r9, [r5], #1
 80027f4:	1aea      	subs	r2, r5, r3
 80027f6:	9b01      	ldr	r3, [sp, #4]
 80027f8:	4293      	cmp	r3, r2
 80027fa:	dd07      	ble.n	800280c <_dtoa_r+0xb64>
 80027fc:	4651      	mov	r1, sl
 80027fe:	2300      	movs	r3, #0
 8002800:	220a      	movs	r2, #10
 8002802:	4620      	mov	r0, r4
 8002804:	f000 f9a4 	bl	8002b50 <__multadd>
 8002808:	4682      	mov	sl, r0
 800280a:	e7ea      	b.n	80027e2 <_dtoa_r+0xb3a>
 800280c:	9b01      	ldr	r3, [sp, #4]
 800280e:	2b00      	cmp	r3, #0
 8002810:	bfc8      	it	gt
 8002812:	461d      	movgt	r5, r3
 8002814:	9b00      	ldr	r3, [sp, #0]
 8002816:	bfd8      	it	le
 8002818:	2501      	movle	r5, #1
 800281a:	441d      	add	r5, r3
 800281c:	f04f 0800 	mov.w	r8, #0
 8002820:	4651      	mov	r1, sl
 8002822:	2201      	movs	r2, #1
 8002824:	4620      	mov	r0, r4
 8002826:	f000 fb41 	bl	8002eac <__lshift>
 800282a:	4631      	mov	r1, r6
 800282c:	4682      	mov	sl, r0
 800282e:	f000 fba9 	bl	8002f84 <__mcmp>
 8002832:	2800      	cmp	r0, #0
 8002834:	dc96      	bgt.n	8002764 <_dtoa_r+0xabc>
 8002836:	d102      	bne.n	800283e <_dtoa_r+0xb96>
 8002838:	f019 0f01 	tst.w	r9, #1
 800283c:	d192      	bne.n	8002764 <_dtoa_r+0xabc>
 800283e:	462b      	mov	r3, r5
 8002840:	461d      	mov	r5, r3
 8002842:	f813 2d01 	ldrb.w	r2, [r3, #-1]!
 8002846:	2a30      	cmp	r2, #48	; 0x30
 8002848:	d0fa      	beq.n	8002840 <_dtoa_r+0xb98>
 800284a:	e6dd      	b.n	8002608 <_dtoa_r+0x960>
 800284c:	9a00      	ldr	r2, [sp, #0]
 800284e:	429a      	cmp	r2, r3
 8002850:	d189      	bne.n	8002766 <_dtoa_r+0xabe>
 8002852:	f10b 0b01 	add.w	fp, fp, #1
 8002856:	2331      	movs	r3, #49	; 0x31
 8002858:	e796      	b.n	8002788 <_dtoa_r+0xae0>
 800285a:	4b0a      	ldr	r3, [pc, #40]	; (8002884 <_dtoa_r+0xbdc>)
 800285c:	f7ff ba99 	b.w	8001d92 <_dtoa_r+0xea>
 8002860:	9b21      	ldr	r3, [sp, #132]	; 0x84
 8002862:	2b00      	cmp	r3, #0
 8002864:	f47f aa6d 	bne.w	8001d42 <_dtoa_r+0x9a>
 8002868:	4b07      	ldr	r3, [pc, #28]	; (8002888 <_dtoa_r+0xbe0>)
 800286a:	f7ff ba92 	b.w	8001d92 <_dtoa_r+0xea>
 800286e:	9b01      	ldr	r3, [sp, #4]
 8002870:	2b00      	cmp	r3, #0
 8002872:	dcb5      	bgt.n	80027e0 <_dtoa_r+0xb38>
 8002874:	9b07      	ldr	r3, [sp, #28]
 8002876:	2b02      	cmp	r3, #2
 8002878:	f73f aeb1 	bgt.w	80025de <_dtoa_r+0x936>
 800287c:	e7b0      	b.n	80027e0 <_dtoa_r+0xb38>
 800287e:	bf00      	nop
 8002880:	08003a18 	.word	0x08003a18
 8002884:	08003978 	.word	0x08003978
 8002888:	0800399c 	.word	0x0800399c

0800288c <_free_r>:
 800288c:	b537      	push	{r0, r1, r2, r4, r5, lr}
 800288e:	2900      	cmp	r1, #0
 8002890:	d044      	beq.n	800291c <_free_r+0x90>
 8002892:	f851 3c04 	ldr.w	r3, [r1, #-4]
 8002896:	9001      	str	r0, [sp, #4]
 8002898:	2b00      	cmp	r3, #0
 800289a:	f1a1 0404 	sub.w	r4, r1, #4
 800289e:	bfb8      	it	lt
 80028a0:	18e4      	addlt	r4, r4, r3
 80028a2:	f000 f8e7 	bl	8002a74 <__malloc_lock>
 80028a6:	4a1e      	ldr	r2, [pc, #120]	; (8002920 <_free_r+0x94>)
 80028a8:	9801      	ldr	r0, [sp, #4]
 80028aa:	6813      	ldr	r3, [r2, #0]
 80028ac:	b933      	cbnz	r3, 80028bc <_free_r+0x30>
 80028ae:	6063      	str	r3, [r4, #4]
 80028b0:	6014      	str	r4, [r2, #0]
 80028b2:	b003      	add	sp, #12
 80028b4:	e8bd 4030 	ldmia.w	sp!, {r4, r5, lr}
 80028b8:	f000 b8e2 	b.w	8002a80 <__malloc_unlock>
 80028bc:	42a3      	cmp	r3, r4
 80028be:	d908      	bls.n	80028d2 <_free_r+0x46>
 80028c0:	6825      	ldr	r5, [r4, #0]
 80028c2:	1961      	adds	r1, r4, r5
 80028c4:	428b      	cmp	r3, r1
 80028c6:	bf01      	itttt	eq
 80028c8:	6819      	ldreq	r1, [r3, #0]
 80028ca:	685b      	ldreq	r3, [r3, #4]
 80028cc:	1949      	addeq	r1, r1, r5
 80028ce:	6021      	streq	r1, [r4, #0]
 80028d0:	e7ed      	b.n	80028ae <_free_r+0x22>
 80028d2:	461a      	mov	r2, r3
 80028d4:	685b      	ldr	r3, [r3, #4]
 80028d6:	b10b      	cbz	r3, 80028dc <_free_r+0x50>
 80028d8:	42a3      	cmp	r3, r4
 80028da:	d9fa      	bls.n	80028d2 <_free_r+0x46>
 80028dc:	6811      	ldr	r1, [r2, #0]
 80028de:	1855      	adds	r5, r2, r1
 80028e0:	42a5      	cmp	r5, r4
 80028e2:	d10b      	bne.n	80028fc <_free_r+0x70>
 80028e4:	6824      	ldr	r4, [r4, #0]
 80028e6:	4421      	add	r1, r4
 80028e8:	1854      	adds	r4, r2, r1
 80028ea:	42a3      	cmp	r3, r4
 80028ec:	6011      	str	r1, [r2, #0]
 80028ee:	d1e0      	bne.n	80028b2 <_free_r+0x26>
 80028f0:	681c      	ldr	r4, [r3, #0]
 80028f2:	685b      	ldr	r3, [r3, #4]
 80028f4:	6053      	str	r3, [r2, #4]
 80028f6:	440c      	add	r4, r1
 80028f8:	6014      	str	r4, [r2, #0]
 80028fa:	e7da      	b.n	80028b2 <_free_r+0x26>
 80028fc:	d902      	bls.n	8002904 <_free_r+0x78>
 80028fe:	230c      	movs	r3, #12
 8002900:	6003      	str	r3, [r0, #0]
 8002902:	e7d6      	b.n	80028b2 <_free_r+0x26>
 8002904:	6825      	ldr	r5, [r4, #0]
 8002906:	1961      	adds	r1, r4, r5
 8002908:	428b      	cmp	r3, r1
 800290a:	bf04      	itt	eq
 800290c:	6819      	ldreq	r1, [r3, #0]
 800290e:	685b      	ldreq	r3, [r3, #4]
 8002910:	6063      	str	r3, [r4, #4]
 8002912:	bf04      	itt	eq
 8002914:	1949      	addeq	r1, r1, r5
 8002916:	6021      	streq	r1, [r4, #0]
 8002918:	6054      	str	r4, [r2, #4]
 800291a:	e7ca      	b.n	80028b2 <_free_r+0x26>
 800291c:	b003      	add	sp, #12
 800291e:	bd30      	pop	{r4, r5, pc}
 8002920:	2000033c 	.word	0x2000033c

08002924 <malloc>:
 8002924:	4b02      	ldr	r3, [pc, #8]	; (8002930 <malloc+0xc>)
 8002926:	4601      	mov	r1, r0
 8002928:	6818      	ldr	r0, [r3, #0]
 800292a:	f000 b823 	b.w	8002974 <_malloc_r>
 800292e:	bf00      	nop
 8002930:	20000058 	.word	0x20000058

08002934 <sbrk_aligned>:
 8002934:	b570      	push	{r4, r5, r6, lr}
 8002936:	4e0e      	ldr	r6, [pc, #56]	; (8002970 <sbrk_aligned+0x3c>)
 8002938:	460c      	mov	r4, r1
 800293a:	6831      	ldr	r1, [r6, #0]
 800293c:	4605      	mov	r5, r0
 800293e:	b911      	cbnz	r1, 8002946 <sbrk_aligned+0x12>
 8002940:	f000 fea8 	bl	8003694 <_sbrk_r>
 8002944:	6030      	str	r0, [r6, #0]
 8002946:	4621      	mov	r1, r4
 8002948:	4628      	mov	r0, r5
 800294a:	f000 fea3 	bl	8003694 <_sbrk_r>
 800294e:	1c43      	adds	r3, r0, #1
 8002950:	d00a      	beq.n	8002968 <sbrk_aligned+0x34>
 8002952:	1cc4      	adds	r4, r0, #3
 8002954:	f024 0403 	bic.w	r4, r4, #3
 8002958:	42a0      	cmp	r0, r4
 800295a:	d007      	beq.n	800296c <sbrk_aligned+0x38>
 800295c:	1a21      	subs	r1, r4, r0
 800295e:	4628      	mov	r0, r5
 8002960:	f000 fe98 	bl	8003694 <_sbrk_r>
 8002964:	3001      	adds	r0, #1
 8002966:	d101      	bne.n	800296c <sbrk_aligned+0x38>
 8002968:	f04f 34ff 	mov.w	r4, #4294967295
 800296c:	4620      	mov	r0, r4
 800296e:	bd70      	pop	{r4, r5, r6, pc}
 8002970:	20000340 	.word	0x20000340

08002974 <_malloc_r>:
 8002974:	e92d 43f8 	stmdb	sp!, {r3, r4, r5, r6, r7, r8, r9, lr}
 8002978:	1ccd      	adds	r5, r1, #3
 800297a:	f025 0503 	bic.w	r5, r5, #3
 800297e:	3508      	adds	r5, #8
 8002980:	2d0c      	cmp	r5, #12
 8002982:	bf38      	it	cc
 8002984:	250c      	movcc	r5, #12
 8002986:	2d00      	cmp	r5, #0
 8002988:	4607      	mov	r7, r0
 800298a:	db01      	blt.n	8002990 <_malloc_r+0x1c>
 800298c:	42a9      	cmp	r1, r5
 800298e:	d905      	bls.n	800299c <_malloc_r+0x28>
 8002990:	230c      	movs	r3, #12
 8002992:	603b      	str	r3, [r7, #0]
 8002994:	2600      	movs	r6, #0
 8002996:	4630      	mov	r0, r6
 8002998:	e8bd 83f8 	ldmia.w	sp!, {r3, r4, r5, r6, r7, r8, r9, pc}
 800299c:	f8df 80d0 	ldr.w	r8, [pc, #208]	; 8002a70 <_malloc_r+0xfc>
 80029a0:	f000 f868 	bl	8002a74 <__malloc_lock>
 80029a4:	f8d8 3000 	ldr.w	r3, [r8]
 80029a8:	461c      	mov	r4, r3
 80029aa:	bb5c      	cbnz	r4, 8002a04 <_malloc_r+0x90>
 80029ac:	4629      	mov	r1, r5
 80029ae:	4638      	mov	r0, r7
 80029b0:	f7ff ffc0 	bl	8002934 <sbrk_aligned>
 80029b4:	1c43      	adds	r3, r0, #1
 80029b6:	4604      	mov	r4, r0
 80029b8:	d155      	bne.n	8002a66 <_malloc_r+0xf2>
 80029ba:	f8d8 4000 	ldr.w	r4, [r8]
 80029be:	4626      	mov	r6, r4
 80029c0:	2e00      	cmp	r6, #0
 80029c2:	d145      	bne.n	8002a50 <_malloc_r+0xdc>
 80029c4:	2c00      	cmp	r4, #0
 80029c6:	d048      	beq.n	8002a5a <_malloc_r+0xe6>
 80029c8:	6823      	ldr	r3, [r4, #0]
 80029ca:	4631      	mov	r1, r6
 80029cc:	4638      	mov	r0, r7
 80029ce:	eb04 0903 	add.w	r9, r4, r3
 80029d2:	f000 fe5f 	bl	8003694 <_sbrk_r>
 80029d6:	4581      	cmp	r9, r0
 80029d8:	d13f      	bne.n	8002a5a <_malloc_r+0xe6>
 80029da:	6821      	ldr	r1, [r4, #0]
 80029dc:	1a6d      	subs	r5, r5, r1
 80029de:	4629      	mov	r1, r5
 80029e0:	4638      	mov	r0, r7
 80029e2:	f7ff ffa7 	bl	8002934 <sbrk_aligned>
 80029e6:	3001      	adds	r0, #1
 80029e8:	d037      	beq.n	8002a5a <_malloc_r+0xe6>
 80029ea:	6823      	ldr	r3, [r4, #0]
 80029ec:	442b      	add	r3, r5
 80029ee:	6023      	str	r3, [r4, #0]
 80029f0:	f8d8 3000 	ldr.w	r3, [r8]
 80029f4:	2b00      	cmp	r3, #0
 80029f6:	d038      	beq.n	8002a6a <_malloc_r+0xf6>
 80029f8:	685a      	ldr	r2, [r3, #4]
 80029fa:	42a2      	cmp	r2, r4
 80029fc:	d12b      	bne.n	8002a56 <_malloc_r+0xe2>
 80029fe:	2200      	movs	r2, #0
 8002a00:	605a      	str	r2, [r3, #4]
 8002a02:	e00f      	b.n	8002a24 <_malloc_r+0xb0>
 8002a04:	6822      	ldr	r2, [r4, #0]
 8002a06:	1b52      	subs	r2, r2, r5
 8002a08:	d41f      	bmi.n	8002a4a <_malloc_r+0xd6>
 8002a0a:	2a0b      	cmp	r2, #11
 8002a0c:	d917      	bls.n	8002a3e <_malloc_r+0xca>
 8002a0e:	1961      	adds	r1, r4, r5
 8002a10:	42a3      	cmp	r3, r4
 8002a12:	6025      	str	r5, [r4, #0]
 8002a14:	bf18      	it	ne
 8002a16:	6059      	strne	r1, [r3, #4]
 8002a18:	6863      	ldr	r3, [r4, #4]
 8002a1a:	bf08      	it	eq
 8002a1c:	f8c8 1000 	streq.w	r1, [r8]
 8002a20:	5162      	str	r2, [r4, r5]
 8002a22:	604b      	str	r3, [r1, #4]
 8002a24:	4638      	mov	r0, r7
 8002a26:	f104 060b 	add.w	r6, r4, #11
 8002a2a:	f000 f829 	bl	8002a80 <__malloc_unlock>
 8002a2e:	f026 0607 	bic.w	r6, r6, #7
 8002a32:	1d23      	adds	r3, r4, #4
 8002a34:	1af2      	subs	r2, r6, r3
 8002a36:	d0ae      	beq.n	8002996 <_malloc_r+0x22>
 8002a38:	1b9b      	subs	r3, r3, r6
 8002a3a:	50a3      	str	r3, [r4, r2]
 8002a3c:	e7ab      	b.n	8002996 <_malloc_r+0x22>
 8002a3e:	42a3      	cmp	r3, r4
 8002a40:	6862      	ldr	r2, [r4, #4]
 8002a42:	d1dd      	bne.n	8002a00 <_malloc_r+0x8c>
 8002a44:	f8c8 2000 	str.w	r2, [r8]
 8002a48:	e7ec      	b.n	8002a24 <_malloc_r+0xb0>
 8002a4a:	4623      	mov	r3, r4
 8002a4c:	6864      	ldr	r4, [r4, #4]
 8002a4e:	e7ac      	b.n	80029aa <_malloc_r+0x36>
 8002a50:	4634      	mov	r4, r6
 8002a52:	6876      	ldr	r6, [r6, #4]
 8002a54:	e7b4      	b.n	80029c0 <_malloc_r+0x4c>
 8002a56:	4613      	mov	r3, r2
 8002a58:	e7cc      	b.n	80029f4 <_malloc_r+0x80>
 8002a5a:	230c      	movs	r3, #12
 8002a5c:	603b      	str	r3, [r7, #0]
 8002a5e:	4638      	mov	r0, r7
 8002a60:	f000 f80e 	bl	8002a80 <__malloc_unlock>
 8002a64:	e797      	b.n	8002996 <_malloc_r+0x22>
 8002a66:	6025      	str	r5, [r4, #0]
 8002a68:	e7dc      	b.n	8002a24 <_malloc_r+0xb0>
 8002a6a:	605b      	str	r3, [r3, #4]
 8002a6c:	deff      	udf	#255	; 0xff
 8002a6e:	bf00      	nop
 8002a70:	2000033c 	.word	0x2000033c

08002a74 <__malloc_lock>:
 8002a74:	4801      	ldr	r0, [pc, #4]	; (8002a7c <__malloc_lock+0x8>)
 8002a76:	f7ff b88c 	b.w	8001b92 <__retarget_lock_acquire_recursive>
 8002a7a:	bf00      	nop
 8002a7c:	20000338 	.word	0x20000338

08002a80 <__malloc_unlock>:
 8002a80:	4801      	ldr	r0, [pc, #4]	; (8002a88 <__malloc_unlock+0x8>)
 8002a82:	f7ff b887 	b.w	8001b94 <__retarget_lock_release_recursive>
 8002a86:	bf00      	nop
 8002a88:	20000338 	.word	0x20000338

08002a8c <_Balloc>:
 8002a8c:	b570      	push	{r4, r5, r6, lr}
 8002a8e:	69c6      	ldr	r6, [r0, #28]
 8002a90:	4604      	mov	r4, r0
 8002a92:	460d      	mov	r5, r1
 8002a94:	b976      	cbnz	r6, 8002ab4 <_Balloc+0x28>
 8002a96:	2010      	movs	r0, #16
 8002a98:	f7ff ff44 	bl	8002924 <malloc>
 8002a9c:	4602      	mov	r2, r0
 8002a9e:	61e0      	str	r0, [r4, #28]
 8002aa0:	b920      	cbnz	r0, 8002aac <_Balloc+0x20>
 8002aa2:	4b18      	ldr	r3, [pc, #96]	; (8002b04 <_Balloc+0x78>)
 8002aa4:	4818      	ldr	r0, [pc, #96]	; (8002b08 <_Balloc+0x7c>)
 8002aa6:	216b      	movs	r1, #107	; 0x6b
 8002aa8:	f000 fe12 	bl	80036d0 <__assert_func>
 8002aac:	e9c0 6601 	strd	r6, r6, [r0, #4]
 8002ab0:	6006      	str	r6, [r0, #0]
 8002ab2:	60c6      	str	r6, [r0, #12]
 8002ab4:	69e6      	ldr	r6, [r4, #28]
 8002ab6:	68f3      	ldr	r3, [r6, #12]
 8002ab8:	b183      	cbz	r3, 8002adc <_Balloc+0x50>
 8002aba:	69e3      	ldr	r3, [r4, #28]
 8002abc:	68db      	ldr	r3, [r3, #12]
 8002abe:	f853 0025 	ldr.w	r0, [r3, r5, lsl #2]
 8002ac2:	b9b8      	cbnz	r0, 8002af4 <_Balloc+0x68>
 8002ac4:	2101      	movs	r1, #1
 8002ac6:	fa01 f605 	lsl.w	r6, r1, r5
 8002aca:	1d72      	adds	r2, r6, #5
 8002acc:	0092      	lsls	r2, r2, #2
 8002ace:	4620      	mov	r0, r4
 8002ad0:	f000 fe1c 	bl	800370c <_calloc_r>
 8002ad4:	b160      	cbz	r0, 8002af0 <_Balloc+0x64>
 8002ad6:	e9c0 5601 	strd	r5, r6, [r0, #4]
 8002ada:	e00e      	b.n	8002afa <_Balloc+0x6e>
 8002adc:	2221      	movs	r2, #33	; 0x21
 8002ade:	2104      	movs	r1, #4
 8002ae0:	4620      	mov	r0, r4
 8002ae2:	f000 fe13 	bl	800370c <_calloc_r>
 8002ae6:	69e3      	ldr	r3, [r4, #28]
 8002ae8:	60f0      	str	r0, [r6, #12]
 8002aea:	68db      	ldr	r3, [r3, #12]
 8002aec:	2b00      	cmp	r3, #0
 8002aee:	d1e4      	bne.n	8002aba <_Balloc+0x2e>
 8002af0:	2000      	movs	r0, #0
 8002af2:	bd70      	pop	{r4, r5, r6, pc}
 8002af4:	6802      	ldr	r2, [r0, #0]
 8002af6:	f843 2025 	str.w	r2, [r3, r5, lsl #2]
 8002afa:	2300      	movs	r3, #0
 8002afc:	e9c0 3303 	strd	r3, r3, [r0, #12]
 8002b00:	e7f7      	b.n	8002af2 <_Balloc+0x66>
 8002b02:	bf00      	nop
 8002b04:	080039a9 	.word	0x080039a9
 8002b08:	08003a29 	.word	0x08003a29

08002b0c <_Bfree>:
 8002b0c:	b570      	push	{r4, r5, r6, lr}
 8002b0e:	69c6      	ldr	r6, [r0, #28]
 8002b10:	4605      	mov	r5, r0
 8002b12:	460c      	mov	r4, r1
 8002b14:	b976      	cbnz	r6, 8002b34 <_Bfree+0x28>
 8002b16:	2010      	movs	r0, #16
 8002b18:	f7ff ff04 	bl	8002924 <malloc>
 8002b1c:	4602      	mov	r2, r0
 8002b1e:	61e8      	str	r0, [r5, #28]
 8002b20:	b920      	cbnz	r0, 8002b2c <_Bfree+0x20>
 8002b22:	4b09      	ldr	r3, [pc, #36]	; (8002b48 <_Bfree+0x3c>)
 8002b24:	4809      	ldr	r0, [pc, #36]	; (8002b4c <_Bfree+0x40>)
 8002b26:	218f      	movs	r1, #143	; 0x8f
 8002b28:	f000 fdd2 	bl	80036d0 <__assert_func>
 8002b2c:	e9c0 6601 	strd	r6, r6, [r0, #4]
 8002b30:	6006      	str	r6, [r0, #0]
 8002b32:	60c6      	str	r6, [r0, #12]
 8002b34:	b13c      	cbz	r4, 8002b46 <_Bfree+0x3a>
 8002b36:	69eb      	ldr	r3, [r5, #28]
 8002b38:	6862      	ldr	r2, [r4, #4]
 8002b3a:	68db      	ldr	r3, [r3, #12]
 8002b3c:	f853 1022 	ldr.w	r1, [r3, r2, lsl #2]
 8002b40:	6021      	str	r1, [r4, #0]
 8002b42:	f843 4022 	str.w	r4, [r3, r2, lsl #2]
 8002b46:	bd70      	pop	{r4, r5, r6, pc}
 8002b48:	080039a9 	.word	0x080039a9
 8002b4c:	08003a29 	.word	0x08003a29

08002b50 <__multadd>:
 8002b50:	e92d 41f0 	stmdb	sp!, {r4, r5, r6, r7, r8, lr}
 8002b54:	690d      	ldr	r5, [r1, #16]
 8002b56:	4607      	mov	r7, r0
 8002b58:	460c      	mov	r4, r1
 8002b5a:	461e      	mov	r6, r3
 8002b5c:	f101 0c14 	add.w	ip, r1, #20
 8002b60:	2000      	movs	r0, #0
 8002b62:	f8dc 3000 	ldr.w	r3, [ip]
 8002b66:	b299      	uxth	r1, r3
 8002b68:	fb02 6101 	mla	r1, r2, r1, r6
 8002b6c:	0c1e      	lsrs	r6, r3, #16
 8002b6e:	0c0b      	lsrs	r3, r1, #16
 8002b70:	fb02 3306 	mla	r3, r2, r6, r3
 8002b74:	b289      	uxth	r1, r1
 8002b76:	3001      	adds	r0, #1
 8002b78:	eb01 4103 	add.w	r1, r1, r3, lsl #16
 8002b7c:	4285      	cmp	r5, r0
 8002b7e:	f84c 1b04 	str.w	r1, [ip], #4
 8002b82:	ea4f 4613 	mov.w	r6, r3, lsr #16
 8002b86:	dcec      	bgt.n	8002b62 <__multadd+0x12>
 8002b88:	b30e      	cbz	r6, 8002bce <__multadd+0x7e>
 8002b8a:	68a3      	ldr	r3, [r4, #8]
 8002b8c:	42ab      	cmp	r3, r5
 8002b8e:	dc19      	bgt.n	8002bc4 <__multadd+0x74>
 8002b90:	6861      	ldr	r1, [r4, #4]
 8002b92:	4638      	mov	r0, r7
 8002b94:	3101      	adds	r1, #1
 8002b96:	f7ff ff79 	bl	8002a8c <_Balloc>
 8002b9a:	4680      	mov	r8, r0
 8002b9c:	b928      	cbnz	r0, 8002baa <__multadd+0x5a>
 8002b9e:	4602      	mov	r2, r0
 8002ba0:	4b0c      	ldr	r3, [pc, #48]	; (8002bd4 <__multadd+0x84>)
 8002ba2:	480d      	ldr	r0, [pc, #52]	; (8002bd8 <__multadd+0x88>)
 8002ba4:	21ba      	movs	r1, #186	; 0xba
 8002ba6:	f000 fd93 	bl	80036d0 <__assert_func>
 8002baa:	6922      	ldr	r2, [r4, #16]
 8002bac:	3202      	adds	r2, #2
 8002bae:	f104 010c 	add.w	r1, r4, #12
 8002bb2:	0092      	lsls	r2, r2, #2
 8002bb4:	300c      	adds	r0, #12
 8002bb6:	f000 fd7d 	bl	80036b4 <memcpy>
 8002bba:	4621      	mov	r1, r4
 8002bbc:	4638      	mov	r0, r7
 8002bbe:	f7ff ffa5 	bl	8002b0c <_Bfree>
 8002bc2:	4644      	mov	r4, r8
 8002bc4:	eb04 0385 	add.w	r3, r4, r5, lsl #2
 8002bc8:	3501      	adds	r5, #1
 8002bca:	615e      	str	r6, [r3, #20]
 8002bcc:	6125      	str	r5, [r4, #16]
 8002bce:	4620      	mov	r0, r4
 8002bd0:	e8bd 81f0 	ldmia.w	sp!, {r4, r5, r6, r7, r8, pc}
 8002bd4:	08003a18 	.word	0x08003a18
 8002bd8:	08003a29 	.word	0x08003a29

08002bdc <__hi0bits>:
 8002bdc:	0c03      	lsrs	r3, r0, #16
 8002bde:	041b      	lsls	r3, r3, #16
 8002be0:	b9d3      	cbnz	r3, 8002c18 <__hi0bits+0x3c>
 8002be2:	0400      	lsls	r0, r0, #16
 8002be4:	2310      	movs	r3, #16
 8002be6:	f010 4f7f 	tst.w	r0, #4278190080	; 0xff000000
 8002bea:	bf04      	itt	eq
 8002bec:	0200      	lsleq	r0, r0, #8
 8002bee:	3308      	addeq	r3, #8
 8002bf0:	f010 4f70 	tst.w	r0, #4026531840	; 0xf0000000
 8002bf4:	bf04      	itt	eq
 8002bf6:	0100      	lsleq	r0, r0, #4
 8002bf8:	3304      	addeq	r3, #4
 8002bfa:	f010 4f40 	tst.w	r0, #3221225472	; 0xc0000000
 8002bfe:	bf04      	itt	eq
 8002c00:	0080      	lsleq	r0, r0, #2
 8002c02:	3302      	addeq	r3, #2
 8002c04:	2800      	cmp	r0, #0
 8002c06:	db05      	blt.n	8002c14 <__hi0bits+0x38>
 8002c08:	f010 4f80 	tst.w	r0, #1073741824	; 0x40000000
 8002c0c:	f103 0301 	add.w	r3, r3, #1
 8002c10:	bf08      	it	eq
 8002c12:	2320      	moveq	r3, #32
 8002c14:	4618      	mov	r0, r3
 8002c16:	4770      	bx	lr
 8002c18:	2300      	movs	r3, #0
 8002c1a:	e7e4      	b.n	8002be6 <__hi0bits+0xa>

08002c1c <__lo0bits>:
 8002c1c:	6803      	ldr	r3, [r0, #0]
 8002c1e:	f013 0207 	ands.w	r2, r3, #7
 8002c22:	d00c      	beq.n	8002c3e <__lo0bits+0x22>
 8002c24:	07d9      	lsls	r1, r3, #31
 8002c26:	d422      	bmi.n	8002c6e <__lo0bits+0x52>
 8002c28:	079a      	lsls	r2, r3, #30
 8002c2a:	bf49      	itett	mi
 8002c2c:	085b      	lsrmi	r3, r3, #1
 8002c2e:	089b      	lsrpl	r3, r3, #2
 8002c30:	6003      	strmi	r3, [r0, #0]
 8002c32:	2201      	movmi	r2, #1
 8002c34:	bf5c      	itt	pl
 8002c36:	6003      	strpl	r3, [r0, #0]
 8002c38:	2202      	movpl	r2, #2
 8002c3a:	4610      	mov	r0, r2
 8002c3c:	4770      	bx	lr
 8002c3e:	b299      	uxth	r1, r3
 8002c40:	b909      	cbnz	r1, 8002c46 <__lo0bits+0x2a>
 8002c42:	0c1b      	lsrs	r3, r3, #16
 8002c44:	2210      	movs	r2, #16
 8002c46:	b2d9      	uxtb	r1, r3
 8002c48:	b909      	cbnz	r1, 8002c4e <__lo0bits+0x32>
 8002c4a:	3208      	adds	r2, #8
 8002c4c:	0a1b      	lsrs	r3, r3, #8
 8002c4e:	0719      	lsls	r1, r3, #28
 8002c50:	bf04      	itt	eq
 8002c52:	091b      	lsreq	r3, r3, #4
 8002c54:	3204      	addeq	r2, #4
 8002c56:	0799      	lsls	r1, r3, #30
 8002c58:	bf04      	itt	eq
 8002c5a:	089b      	lsreq	r3, r3, #2
 8002c5c:	3202      	addeq	r2, #2
 8002c5e:	07d9      	lsls	r1, r3, #31
 8002c60:	d403      	bmi.n	8002c6a <__lo0bits+0x4e>
 8002c62:	085b      	lsrs	r3, r3, #1
 8002c64:	f102 0201 	add.w	r2, r2, #1
 8002c68:	d003      	beq.n	8002c72 <__lo0bits+0x56>
 8002c6a:	6003      	str	r3, [r0, #0]
 8002c6c:	e7e5      	b.n	8002c3a <__lo0bits+0x1e>
 8002c6e:	2200      	movs	r2, #0
 8002c70:	e7e3      	b.n	8002c3a <__lo0bits+0x1e>
 8002c72:	2220      	movs	r2, #32
 8002c74:	e7e1      	b.n	8002c3a <__lo0bits+0x1e>
	...

08002c78 <__i2b>:
 8002c78:	b510      	push	{r4, lr}
 8002c7a:	460c      	mov	r4, r1
 8002c7c:	2101      	movs	r1, #1
 8002c7e:	f7ff ff05 	bl	8002a8c <_Balloc>
 8002c82:	4602      	mov	r2, r0
 8002c84:	b928      	cbnz	r0, 8002c92 <__i2b+0x1a>
 8002c86:	4b05      	ldr	r3, [pc, #20]	; (8002c9c <__i2b+0x24>)
 8002c88:	4805      	ldr	r0, [pc, #20]	; (8002ca0 <__i2b+0x28>)
 8002c8a:	f240 1145 	movw	r1, #325	; 0x145
 8002c8e:	f000 fd1f 	bl	80036d0 <__assert_func>
 8002c92:	2301      	movs	r3, #1
 8002c94:	6144      	str	r4, [r0, #20]
 8002c96:	6103      	str	r3, [r0, #16]
 8002c98:	bd10      	pop	{r4, pc}
 8002c9a:	bf00      	nop
 8002c9c:	08003a18 	.word	0x08003a18
 8002ca0:	08003a29 	.word	0x08003a29

08002ca4 <__multiply>:
 8002ca4:	e92d 4ff0 	stmdb	sp!, {r4, r5, r6, r7, r8, r9, sl, fp, lr}
 8002ca8:	4691      	mov	r9, r2
 8002caa:	690a      	ldr	r2, [r1, #16]
 8002cac:	f8d9 3010 	ldr.w	r3, [r9, #16]
 8002cb0:	429a      	cmp	r2, r3
 8002cb2:	bfb8      	it	lt
 8002cb4:	460b      	movlt	r3, r1
 8002cb6:	460c      	mov	r4, r1
 8002cb8:	bfbc      	itt	lt
 8002cba:	464c      	movlt	r4, r9
 8002cbc:	4699      	movlt	r9, r3
 8002cbe:	6927      	ldr	r7, [r4, #16]
 8002cc0:	f8d9 a010 	ldr.w	sl, [r9, #16]
 8002cc4:	68a3      	ldr	r3, [r4, #8]
 8002cc6:	6861      	ldr	r1, [r4, #4]
 8002cc8:	eb07 060a 	add.w	r6, r7, sl
 8002ccc:	42b3      	cmp	r3, r6
 8002cce:	b085      	sub	sp, #20
 8002cd0:	bfb8      	it	lt
 8002cd2:	3101      	addlt	r1, #1
 8002cd4:	f7ff feda 	bl	8002a8c <_Balloc>
 8002cd8:	b930      	cbnz	r0, 8002ce8 <__multiply+0x44>
 8002cda:	4602      	mov	r2, r0
 8002cdc:	4b44      	ldr	r3, [pc, #272]	; (8002df0 <__multiply+0x14c>)
 8002cde:	4845      	ldr	r0, [pc, #276]	; (8002df4 <__multiply+0x150>)
 8002ce0:	f44f 71b1 	mov.w	r1, #354	; 0x162
 8002ce4:	f000 fcf4 	bl	80036d0 <__assert_func>
 8002ce8:	f100 0514 	add.w	r5, r0, #20
 8002cec:	eb05 0886 	add.w	r8, r5, r6, lsl #2
 8002cf0:	462b      	mov	r3, r5
 8002cf2:	2200      	movs	r2, #0
 8002cf4:	4543      	cmp	r3, r8
 8002cf6:	d321      	bcc.n	8002d3c <__multiply+0x98>
 8002cf8:	f104 0314 	add.w	r3, r4, #20
 8002cfc:	eb03 0787 	add.w	r7, r3, r7, lsl #2
 8002d00:	f109 0314 	add.w	r3, r9, #20
 8002d04:	eb03 028a 	add.w	r2, r3, sl, lsl #2
 8002d08:	9202      	str	r2, [sp, #8]
 8002d0a:	1b3a      	subs	r2, r7, r4
 8002d0c:	3a15      	subs	r2, #21
 8002d0e:	f022 0203 	bic.w	r2, r2, #3
 8002d12:	3204      	adds	r2, #4
 8002d14:	f104 0115 	add.w	r1, r4, #21
 8002d18:	428f      	cmp	r7, r1
 8002d1a:	bf38      	it	cc
 8002d1c:	2204      	movcc	r2, #4
 8002d1e:	9201      	str	r2, [sp, #4]
 8002d20:	9a02      	ldr	r2, [sp, #8]
 8002d22:	9303      	str	r3, [sp, #12]
 8002d24:	429a      	cmp	r2, r3
 8002d26:	d80c      	bhi.n	8002d42 <__multiply+0x9e>
 8002d28:	2e00      	cmp	r6, #0
 8002d2a:	dd03      	ble.n	8002d34 <__multiply+0x90>
 8002d2c:	f858 3d04 	ldr.w	r3, [r8, #-4]!
 8002d30:	2b00      	cmp	r3, #0
 8002d32:	d05b      	beq.n	8002dec <__multiply+0x148>
 8002d34:	6106      	str	r6, [r0, #16]
 8002d36:	b005      	add	sp, #20
 8002d38:	e8bd 8ff0 	ldmia.w	sp!, {r4, r5, r6, r7, r8, r9, sl, fp, pc}
 8002d3c:	f843 2b04 	str.w	r2, [r3], #4
 8002d40:	e7d8      	b.n	8002cf4 <__multiply+0x50>
 8002d42:	f8b3 a000 	ldrh.w	sl, [r3]
 8002d46:	f1ba 0f00 	cmp.w	sl, #0
 8002d4a:	d024      	beq.n	8002d96 <__multiply+0xf2>
 8002d4c:	f104 0e14 	add.w	lr, r4, #20
 8002d50:	46a9      	mov	r9, r5
 8002d52:	f04f 0c00 	mov.w	ip, #0
 8002d56:	f85e 2b04 	ldr.w	r2, [lr], #4
 8002d5a:	f8d9 1000 	ldr.w	r1, [r9]
 8002d5e:	fa1f fb82 	uxth.w	fp, r2
 8002d62:	b289      	uxth	r1, r1
 8002d64:	fb0a 110b 	mla	r1, sl, fp, r1
 8002d68:	ea4f 4b12 	mov.w	fp, r2, lsr #16
 8002d6c:	f8d9 2000 	ldr.w	r2, [r9]
 8002d70:	4461      	add	r1, ip
 8002d72:	ea4f 4c12 	mov.w	ip, r2, lsr #16
 8002d76:	fb0a c20b 	mla	r2, sl, fp, ip
 8002d7a:	eb02 4211 	add.w	r2, r2, r1, lsr #16
 8002d7e:	b289      	uxth	r1, r1
 8002d80:	ea41 4102 	orr.w	r1, r1, r2, lsl #16
 8002d84:	4577      	cmp	r7, lr
 8002d86:	f849 1b04 	str.w	r1, [r9], #4
 8002d8a:	ea4f 4c12 	mov.w	ip, r2, lsr #16
 8002d8e:	d8e2      	bhi.n	8002d56 <__multiply+0xb2>
 8002d90:	9a01      	ldr	r2, [sp, #4]
 8002d92:	f845 c002 	str.w	ip, [r5, r2]
 8002d96:	9a03      	ldr	r2, [sp, #12]
 8002d98:	f8b2 9002 	ldrh.w	r9, [r2, #2]
 8002d9c:	3304      	adds	r3, #4
 8002d9e:	f1b9 0f00 	cmp.w	r9, #0
 8002da2:	d021      	beq.n	8002de8 <__multiply+0x144>
 8002da4:	6829      	ldr	r1, [r5, #0]
 8002da6:	f104 0c14 	add.w	ip, r4, #20
 8002daa:	46ae      	mov	lr, r5
 8002dac:	f04f 0a00 	mov.w	sl, #0
 8002db0:	f8bc b000 	ldrh.w	fp, [ip]
 8002db4:	f8be 2002 	ldrh.w	r2, [lr, #2]
 8002db8:	fb09 220b 	mla	r2, r9, fp, r2
 8002dbc:	4452      	add	r2, sl
 8002dbe:	b289      	uxth	r1, r1
 8002dc0:	ea41 4102 	orr.w	r1, r1, r2, lsl #16
 8002dc4:	f84e 1b04 	str.w	r1, [lr], #4
 8002dc8:	f85c 1b04 	ldr.w	r1, [ip], #4
 8002dcc:	ea4f 4a11 	mov.w	sl, r1, lsr #16
 8002dd0:	f8be 1000 	ldrh.w	r1, [lr]
 8002dd4:	fb09 110a 	mla	r1, r9, sl, r1
 8002dd8:	eb01 4112 	add.w	r1, r1, r2, lsr #16
 8002ddc:	4567      	cmp	r7, ip
 8002dde:	ea4f 4a11 	mov.w	sl, r1, lsr #16
 8002de2:	d8e5      	bhi.n	8002db0 <__multiply+0x10c>
 8002de4:	9a01      	ldr	r2, [sp, #4]
 8002de6:	50a9      	str	r1, [r5, r2]
 8002de8:	3504      	adds	r5, #4
 8002dea:	e799      	b.n	8002d20 <__multiply+0x7c>
 8002dec:	3e01      	subs	r6, #1
 8002dee:	e79b      	b.n	8002d28 <__multiply+0x84>
 8002df0:	08003a18 	.word	0x08003a18
 8002df4:	08003a29 	.word	0x08003a29

08002df8 <__pow5mult>:
 8002df8:	e92d 43f8 	stmdb	sp!, {r3, r4, r5, r6, r7, r8, r9, lr}
 8002dfc:	4615      	mov	r5, r2
 8002dfe:	f012 0203 	ands.w	r2, r2, #3
 8002e02:	4606      	mov	r6, r0
 8002e04:	460f      	mov	r7, r1
 8002e06:	d007      	beq.n	8002e18 <__pow5mult+0x20>
 8002e08:	4c25      	ldr	r4, [pc, #148]	; (8002ea0 <__pow5mult+0xa8>)
 8002e0a:	3a01      	subs	r2, #1
 8002e0c:	2300      	movs	r3, #0
 8002e0e:	f854 2022 	ldr.w	r2, [r4, r2, lsl #2]
 8002e12:	f7ff fe9d 	bl	8002b50 <__multadd>
 8002e16:	4607      	mov	r7, r0
 8002e18:	10ad      	asrs	r5, r5, #2
 8002e1a:	d03d      	beq.n	8002e98 <__pow5mult+0xa0>
 8002e1c:	69f4      	ldr	r4, [r6, #28]
 8002e1e:	b97c      	cbnz	r4, 8002e40 <__pow5mult+0x48>
 8002e20:	2010      	movs	r0, #16
 8002e22:	f7ff fd7f 	bl	8002924 <malloc>
 8002e26:	4602      	mov	r2, r0
 8002e28:	61f0      	str	r0, [r6, #28]
 8002e2a:	b928      	cbnz	r0, 8002e38 <__pow5mult+0x40>
 8002e2c:	4b1d      	ldr	r3, [pc, #116]	; (8002ea4 <__pow5mult+0xac>)
 8002e2e:	481e      	ldr	r0, [pc, #120]	; (8002ea8 <__pow5mult+0xb0>)
 8002e30:	f240 11b3 	movw	r1, #435	; 0x1b3
 8002e34:	f000 fc4c 	bl	80036d0 <__assert_func>
 8002e38:	e9c0 4401 	strd	r4, r4, [r0, #4]
 8002e3c:	6004      	str	r4, [r0, #0]
 8002e3e:	60c4      	str	r4, [r0, #12]
 8002e40:	f8d6 801c 	ldr.w	r8, [r6, #28]
 8002e44:	f8d8 4008 	ldr.w	r4, [r8, #8]
 8002e48:	b94c      	cbnz	r4, 8002e5e <__pow5mult+0x66>
 8002e4a:	f240 2171 	movw	r1, #625	; 0x271
 8002e4e:	4630      	mov	r0, r6
 8002e50:	f7ff ff12 	bl	8002c78 <__i2b>
 8002e54:	2300      	movs	r3, #0
 8002e56:	f8c8 0008 	str.w	r0, [r8, #8]
 8002e5a:	4604      	mov	r4, r0
 8002e5c:	6003      	str	r3, [r0, #0]
 8002e5e:	f04f 0900 	mov.w	r9, #0
 8002e62:	07eb      	lsls	r3, r5, #31
 8002e64:	d50a      	bpl.n	8002e7c <__pow5mult+0x84>
 8002e66:	4639      	mov	r1, r7
 8002e68:	4622      	mov	r2, r4
 8002e6a:	4630      	mov	r0, r6
 8002e6c:	f7ff ff1a 	bl	8002ca4 <__multiply>
 8002e70:	4639      	mov	r1, r7
 8002e72:	4680      	mov	r8, r0
 8002e74:	4630      	mov	r0, r6
 8002e76:	f7ff fe49 	bl	8002b0c <_Bfree>
 8002e7a:	4647      	mov	r7, r8
 8002e7c:	106d      	asrs	r5, r5, #1
 8002e7e:	d00b      	beq.n	8002e98 <__pow5mult+0xa0>
 8002e80:	6820      	ldr	r0, [r4, #0]
 8002e82:	b938      	cbnz	r0, 8002e94 <__pow5mult+0x9c>
 8002e84:	4622      	mov	r2, r4
 8002e86:	4621      	mov	r1, r4
 8002e88:	4630      	mov	r0, r6
 8002e8a:	f7ff ff0b 	bl	8002ca4 <__multiply>
 8002e8e:	6020      	str	r0, [r4, #0]
 8002e90:	f8c0 9000 	str.w	r9, [r0]
 8002e94:	4604      	mov	r4, r0
 8002e96:	e7e4      	b.n	8002e62 <__pow5mult+0x6a>
 8002e98:	4638      	mov	r0, r7
 8002e9a:	e8bd 83f8 	ldmia.w	sp!, {r3, r4, r5, r6, r7, r8, r9, pc}
 8002e9e:	bf00      	nop
 8002ea0:	08003b78 	.word	0x08003b78
 8002ea4:	080039a9 	.word	0x080039a9
 8002ea8:	08003a29 	.word	0x08003a29

08002eac <__lshift>:
 8002eac:	e92d 47f0 	stmdb	sp!, {r4, r5, r6, r7, r8, r9, sl, lr}
 8002eb0:	460c      	mov	r4, r1
 8002eb2:	6849      	ldr	r1, [r1, #4]
 8002eb4:	6923      	ldr	r3, [r4, #16]
 8002eb6:	eb03 1862 	add.w	r8, r3, r2, asr #5
 8002eba:	68a3      	ldr	r3, [r4, #8]
 8002ebc:	4607      	mov	r7, r0
 8002ebe:	4691      	mov	r9, r2
 8002ec0:	ea4f 1a62 	mov.w	sl, r2, asr #5
 8002ec4:	f108 0601 	add.w	r6, r8, #1
 8002ec8:	42b3      	cmp	r3, r6
 8002eca:	db0b      	blt.n	8002ee4 <__lshift+0x38>
 8002ecc:	4638      	mov	r0, r7
 8002ece:	f7ff fddd 	bl	8002a8c <_Balloc>
 8002ed2:	4605      	mov	r5, r0
 8002ed4:	b948      	cbnz	r0, 8002eea <__lshift+0x3e>
 8002ed6:	4602      	mov	r2, r0
 8002ed8:	4b28      	ldr	r3, [pc, #160]	; (8002f7c <__lshift+0xd0>)
 8002eda:	4829      	ldr	r0, [pc, #164]	; (8002f80 <__lshift+0xd4>)
 8002edc:	f44f 71ef 	mov.w	r1, #478	; 0x1de
 8002ee0:	f000 fbf6 	bl	80036d0 <__assert_func>
 8002ee4:	3101      	adds	r1, #1
 8002ee6:	005b      	lsls	r3, r3, #1
 8002ee8:	e7ee      	b.n	8002ec8 <__lshift+0x1c>
 8002eea:	2300      	movs	r3, #0
 8002eec:	f100 0114 	add.w	r1, r0, #20
 8002ef0:	f100 0210 	add.w	r2, r0, #16
 8002ef4:	4618      	mov	r0, r3
 8002ef6:	4553      	cmp	r3, sl
 8002ef8:	db33      	blt.n	8002f62 <__lshift+0xb6>
 8002efa:	6920      	ldr	r0, [r4, #16]
 8002efc:	ea2a 7aea 	bic.w	sl, sl, sl, asr #31
 8002f00:	f104 0314 	add.w	r3, r4, #20
 8002f04:	f019 091f 	ands.w	r9, r9, #31
 8002f08:	eb01 018a 	add.w	r1, r1, sl, lsl #2
 8002f0c:	eb03 0c80 	add.w	ip, r3, r0, lsl #2
 8002f10:	d02b      	beq.n	8002f6a <__lshift+0xbe>
 8002f12:	f1c9 0e20 	rsb	lr, r9, #32
 8002f16:	468a      	mov	sl, r1
 8002f18:	2200      	movs	r2, #0
 8002f1a:	6818      	ldr	r0, [r3, #0]
 8002f1c:	fa00 f009 	lsl.w	r0, r0, r9
 8002f20:	4310      	orrs	r0, r2
 8002f22:	f84a 0b04 	str.w	r0, [sl], #4
 8002f26:	f853 2b04 	ldr.w	r2, [r3], #4
 8002f2a:	459c      	cmp	ip, r3
 8002f2c:	fa22 f20e 	lsr.w	r2, r2, lr
 8002f30:	d8f3      	bhi.n	8002f1a <__lshift+0x6e>
 8002f32:	ebac 0304 	sub.w	r3, ip, r4
 8002f36:	3b15      	subs	r3, #21
 8002f38:	f023 0303 	bic.w	r3, r3, #3
 8002f3c:	3304      	adds	r3, #4
 8002f3e:	f104 0015 	add.w	r0, r4, #21
 8002f42:	4584      	cmp	ip, r0
 8002f44:	bf38      	it	cc
 8002f46:	2304      	movcc	r3, #4
 8002f48:	50ca      	str	r2, [r1, r3]
 8002f4a:	b10a      	cbz	r2, 8002f50 <__lshift+0xa4>
 8002f4c:	f108 0602 	add.w	r6, r8, #2
 8002f50:	3e01      	subs	r6, #1
 8002f52:	4638      	mov	r0, r7
 8002f54:	612e      	str	r6, [r5, #16]
 8002f56:	4621      	mov	r1, r4
 8002f58:	f7ff fdd8 	bl	8002b0c <_Bfree>
 8002f5c:	4628      	mov	r0, r5
 8002f5e:	e8bd 87f0 	ldmia.w	sp!, {r4, r5, r6, r7, r8, r9, sl, pc}
 8002f62:	f842 0f04 	str.w	r0, [r2, #4]!
 8002f66:	3301      	adds	r3, #1
 8002f68:	e7c5      	b.n	8002ef6 <__lshift+0x4a>
 8002f6a:	3904      	subs	r1, #4
 8002f6c:	f853 2b04 	ldr.w	r2, [r3], #4
 8002f70:	f841 2f04 	str.w	r2, [r1, #4]!
 8002f74:	459c      	cmp	ip, r3
 8002f76:	d8f9      	bhi.n	8002f6c <__lshift+0xc0>
 8002f78:	e7ea      	b.n	8002f50 <__lshift+0xa4>
 8002f7a:	bf00      	nop
 8002f7c:	08003a18 	.word	0x08003a18
 8002f80:	08003a29 	.word	0x08003a29

08002f84 <__mcmp>:
 8002f84:	b530      	push	{r4, r5, lr}
 8002f86:	6902      	ldr	r2, [r0, #16]
 8002f88:	690c      	ldr	r4, [r1, #16]
 8002f8a:	1b12      	subs	r2, r2, r4
 8002f8c:	d10e      	bne.n	8002fac <__mcmp+0x28>
 8002f8e:	f100 0314 	add.w	r3, r0, #20
 8002f92:	3114      	adds	r1, #20
 8002f94:	eb03 0084 	add.w	r0, r3, r4, lsl #2
 8002f98:	eb01 0184 	add.w	r1, r1, r4, lsl #2
 8002f9c:	f850 5d04 	ldr.w	r5, [r0, #-4]!
 8002fa0:	f851 4d04 	ldr.w	r4, [r1, #-4]!
 8002fa4:	42a5      	cmp	r5, r4
 8002fa6:	d003      	beq.n	8002fb0 <__mcmp+0x2c>
 8002fa8:	d305      	bcc.n	8002fb6 <__mcmp+0x32>
 8002faa:	2201      	movs	r2, #1
 8002fac:	4610      	mov	r0, r2
 8002fae:	bd30      	pop	{r4, r5, pc}
 8002fb0:	4283      	cmp	r3, r0
 8002fb2:	d3f3      	bcc.n	8002f9c <__mcmp+0x18>
 8002fb4:	e7fa      	b.n	8002fac <__mcmp+0x28>
 8002fb6:	f04f 32ff 	mov.w	r2, #4294967295
 8002fba:	e7f7      	b.n	8002fac <__mcmp+0x28>

08002fbc <__mdiff>:
 8002fbc:	e92d 4ff8 	stmdb	sp!, {r3, r4, r5, r6, r7, r8, r9, sl, fp, lr}
 8002fc0:	460c      	mov	r4, r1
 8002fc2:	4606      	mov	r6, r0
 8002fc4:	4611      	mov	r1, r2
 8002fc6:	4620      	mov	r0, r4
 8002fc8:	4690      	mov	r8, r2
 8002fca:	f7ff ffdb 	bl	8002f84 <__mcmp>
 8002fce:	1e05      	subs	r5, r0, #0
 8002fd0:	d110      	bne.n	8002ff4 <__mdiff+0x38>
 8002fd2:	4629      	mov	r1, r5
 8002fd4:	4630      	mov	r0, r6
 8002fd6:	f7ff fd59 	bl	8002a8c <_Balloc>
 8002fda:	b930      	cbnz	r0, 8002fea <__mdiff+0x2e>
 8002fdc:	4b3a      	ldr	r3, [pc, #232]	; (80030c8 <__mdiff+0x10c>)
 8002fde:	4602      	mov	r2, r0
 8002fe0:	f240 2137 	movw	r1, #567	; 0x237
 8002fe4:	4839      	ldr	r0, [pc, #228]	; (80030cc <__mdiff+0x110>)
 8002fe6:	f000 fb73 	bl	80036d0 <__assert_func>
 8002fea:	2301      	movs	r3, #1
 8002fec:	e9c0 3504 	strd	r3, r5, [r0, #16]
 8002ff0:	e8bd 8ff8 	ldmia.w	sp!, {r3, r4, r5, r6, r7, r8, r9, sl, fp, pc}
 8002ff4:	bfa4      	itt	ge
 8002ff6:	4643      	movge	r3, r8
 8002ff8:	46a0      	movge	r8, r4
 8002ffa:	4630      	mov	r0, r6
 8002ffc:	f8d8 1004 	ldr.w	r1, [r8, #4]
 8003000:	bfa6      	itte	ge
 8003002:	461c      	movge	r4, r3
 8003004:	2500      	movge	r5, #0
 8003006:	2501      	movlt	r5, #1
 8003008:	f7ff fd40 	bl	8002a8c <_Balloc>
 800300c:	b920      	cbnz	r0, 8003018 <__mdiff+0x5c>
 800300e:	4b2e      	ldr	r3, [pc, #184]	; (80030c8 <__mdiff+0x10c>)
 8003010:	4602      	mov	r2, r0
 8003012:	f240 2145 	movw	r1, #581	; 0x245
 8003016:	e7e5      	b.n	8002fe4 <__mdiff+0x28>
 8003018:	f8d8 7010 	ldr.w	r7, [r8, #16]
 800301c:	6926      	ldr	r6, [r4, #16]
 800301e:	60c5      	str	r5, [r0, #12]
 8003020:	f104 0914 	add.w	r9, r4, #20
 8003024:	f108 0514 	add.w	r5, r8, #20
 8003028:	f100 0e14 	add.w	lr, r0, #20
 800302c:	eb05 0c87 	add.w	ip, r5, r7, lsl #2
 8003030:	eb09 0686 	add.w	r6, r9, r6, lsl #2
 8003034:	f108 0210 	add.w	r2, r8, #16
 8003038:	46f2      	mov	sl, lr
 800303a:	2100      	movs	r1, #0
 800303c:	f859 3b04 	ldr.w	r3, [r9], #4
 8003040:	f852 bf04 	ldr.w	fp, [r2, #4]!
 8003044:	fa11 f88b 	uxtah	r8, r1, fp
 8003048:	b299      	uxth	r1, r3
 800304a:	0c1b      	lsrs	r3, r3, #16
 800304c:	eba8 0801 	sub.w	r8, r8, r1
 8003050:	ebc3 431b 	rsb	r3, r3, fp, lsr #16
 8003054:	eb03 4328 	add.w	r3, r3, r8, asr #16
 8003058:	fa1f f888 	uxth.w	r8, r8
 800305c:	1419      	asrs	r1, r3, #16
 800305e:	454e      	cmp	r6, r9
 8003060:	ea48 4303 	orr.w	r3, r8, r3, lsl #16
 8003064:	f84a 3b04 	str.w	r3, [sl], #4
 8003068:	d8e8      	bhi.n	800303c <__mdiff+0x80>
 800306a:	1b33      	subs	r3, r6, r4
 800306c:	3b15      	subs	r3, #21
 800306e:	f023 0303 	bic.w	r3, r3, #3
 8003072:	3304      	adds	r3, #4
 8003074:	3415      	adds	r4, #21
 8003076:	42a6      	cmp	r6, r4
 8003078:	bf38      	it	cc
 800307a:	2304      	movcc	r3, #4
 800307c:	441d      	add	r5, r3
 800307e:	4473      	add	r3, lr
 8003080:	469e      	mov	lr, r3
 8003082:	462e      	mov	r6, r5
 8003084:	4566      	cmp	r6, ip
 8003086:	d30e      	bcc.n	80030a6 <__mdiff+0xea>
 8003088:	f10c 0203 	add.w	r2, ip, #3
 800308c:	1b52      	subs	r2, r2, r5
 800308e:	f022 0203 	bic.w	r2, r2, #3
 8003092:	3d03      	subs	r5, #3
 8003094:	45ac      	cmp	ip, r5
 8003096:	bf38      	it	cc
 8003098:	2200      	movcc	r2, #0
 800309a:	4413      	add	r3, r2
 800309c:	f853 2d04 	ldr.w	r2, [r3, #-4]!
 80030a0:	b17a      	cbz	r2, 80030c2 <__mdiff+0x106>
 80030a2:	6107      	str	r7, [r0, #16]
 80030a4:	e7a4      	b.n	8002ff0 <__mdiff+0x34>
 80030a6:	f856 8b04 	ldr.w	r8, [r6], #4
 80030aa:	fa11 f288 	uxtah	r2, r1, r8
 80030ae:	1414      	asrs	r4, r2, #16
 80030b0:	eb04 4418 	add.w	r4, r4, r8, lsr #16
 80030b4:	b292      	uxth	r2, r2
 80030b6:	ea42 4204 	orr.w	r2, r2, r4, lsl #16
 80030ba:	f84e 2b04 	str.w	r2, [lr], #4
 80030be:	1421      	asrs	r1, r4, #16
 80030c0:	e7e0      	b.n	8003084 <__mdiff+0xc8>
 80030c2:	3f01      	subs	r7, #1
 80030c4:	e7ea      	b.n	800309c <__mdiff+0xe0>
 80030c6:	bf00      	nop
 80030c8:	08003a18 	.word	0x08003a18
 80030cc:	08003a29 	.word	0x08003a29

080030d0 <__d2b>:
 80030d0:	e92d 43f7 	stmdb	sp!, {r0, r1, r2, r4, r5, r6, r7, r8, r9, lr}
 80030d4:	460f      	mov	r7, r1
 80030d6:	2101      	movs	r1, #1
 80030d8:	ec59 8b10 	vmov	r8, r9, d0
 80030dc:	4616      	mov	r6, r2
 80030de:	f7ff fcd5 	bl	8002a8c <_Balloc>
 80030e2:	4604      	mov	r4, r0
 80030e4:	b930      	cbnz	r0, 80030f4 <__d2b+0x24>
 80030e6:	4602      	mov	r2, r0
 80030e8:	4b24      	ldr	r3, [pc, #144]	; (800317c <__d2b+0xac>)
 80030ea:	4825      	ldr	r0, [pc, #148]	; (8003180 <__d2b+0xb0>)
 80030ec:	f240 310f 	movw	r1, #783	; 0x30f
 80030f0:	f000 faee 	bl	80036d0 <__assert_func>
 80030f4:	f3c9 550a 	ubfx	r5, r9, #20, #11
 80030f8:	f3c9 0313 	ubfx	r3, r9, #0, #20
 80030fc:	bb2d      	cbnz	r5, 800314a <__d2b+0x7a>
 80030fe:	9301      	str	r3, [sp, #4]
 8003100:	f1b8 0300 	subs.w	r3, r8, #0
 8003104:	d026      	beq.n	8003154 <__d2b+0x84>
 8003106:	4668      	mov	r0, sp
 8003108:	9300      	str	r3, [sp, #0]
 800310a:	f7ff fd87 	bl	8002c1c <__lo0bits>
 800310e:	e9dd 1200 	ldrd	r1, r2, [sp]
 8003112:	b1e8      	cbz	r0, 8003150 <__d2b+0x80>
 8003114:	f1c0 0320 	rsb	r3, r0, #32
 8003118:	fa02 f303 	lsl.w	r3, r2, r3
 800311c:	430b      	orrs	r3, r1
 800311e:	40c2      	lsrs	r2, r0
 8003120:	6163      	str	r3, [r4, #20]
 8003122:	9201      	str	r2, [sp, #4]
 8003124:	9b01      	ldr	r3, [sp, #4]
 8003126:	61a3      	str	r3, [r4, #24]
 8003128:	2b00      	cmp	r3, #0
 800312a:	bf14      	ite	ne
 800312c:	2202      	movne	r2, #2
 800312e:	2201      	moveq	r2, #1
 8003130:	6122      	str	r2, [r4, #16]
 8003132:	b1bd      	cbz	r5, 8003164 <__d2b+0x94>
 8003134:	f2a5 4533 	subw	r5, r5, #1075	; 0x433
 8003138:	4405      	add	r5, r0
 800313a:	603d      	str	r5, [r7, #0]
 800313c:	f1c0 0035 	rsb	r0, r0, #53	; 0x35
 8003140:	6030      	str	r0, [r6, #0]
 8003142:	4620      	mov	r0, r4
 8003144:	b003      	add	sp, #12
 8003146:	e8bd 83f0 	ldmia.w	sp!, {r4, r5, r6, r7, r8, r9, pc}
 800314a:	f443 1380 	orr.w	r3, r3, #1048576	; 0x100000
 800314e:	e7d6      	b.n	80030fe <__d2b+0x2e>
 8003150:	6161      	str	r1, [r4, #20]
 8003152:	e7e7      	b.n	8003124 <__d2b+0x54>
 8003154:	a801      	add	r0, sp, #4
 8003156:	f7ff fd61 	bl	8002c1c <__lo0bits>
 800315a:	9b01      	ldr	r3, [sp, #4]
 800315c:	6163      	str	r3, [r4, #20]
 800315e:	3020      	adds	r0, #32
 8003160:	2201      	movs	r2, #1
 8003162:	e7e5      	b.n	8003130 <__d2b+0x60>
 8003164:	eb04 0382 	add.w	r3, r4, r2, lsl #2
 8003168:	f2a0 4032 	subw	r0, r0, #1074	; 0x432
 800316c:	6038      	str	r0, [r7, #0]
 800316e:	6918      	ldr	r0, [r3, #16]
 8003170:	f7ff fd34 	bl	8002bdc <__hi0bits>
 8003174:	ebc0 1042 	rsb	r0, r0, r2, lsl #5
 8003178:	e7e2      	b.n	8003140 <__d2b+0x70>
 800317a:	bf00      	nop
 800317c:	08003a18 	.word	0x08003a18
 8003180:	08003a29 	.word	0x08003a29

08003184 <__sfputc_r>:
 8003184:	6893      	ldr	r3, [r2, #8]
 8003186:	3b01      	subs	r3, #1
 8003188:	2b00      	cmp	r3, #0
 800318a:	b410      	push	{r4}
 800318c:	6093      	str	r3, [r2, #8]
 800318e:	da08      	bge.n	80031a2 <__sfputc_r+0x1e>
 8003190:	6994      	ldr	r4, [r2, #24]
 8003192:	42a3      	cmp	r3, r4
 8003194:	db01      	blt.n	800319a <__sfputc_r+0x16>
 8003196:	290a      	cmp	r1, #10
 8003198:	d103      	bne.n	80031a2 <__sfputc_r+0x1e>
 800319a:	f85d 4b04 	ldr.w	r4, [sp], #4
 800319e:	f000 b9e3 	b.w	8003568 <__swbuf_r>
 80031a2:	6813      	ldr	r3, [r2, #0]
 80031a4:	1c58      	adds	r0, r3, #1
 80031a6:	6010      	str	r0, [r2, #0]
 80031a8:	7019      	strb	r1, [r3, #0]
 80031aa:	4608      	mov	r0, r1
 80031ac:	f85d 4b04 	ldr.w	r4, [sp], #4
 80031b0:	4770      	bx	lr

080031b2 <__sfputs_r>:
 80031b2:	b5f8      	push	{r3, r4, r5, r6, r7, lr}
 80031b4:	4606      	mov	r6, r0
 80031b6:	460f      	mov	r7, r1
 80031b8:	4614      	mov	r4, r2
 80031ba:	18d5      	adds	r5, r2, r3
 80031bc:	42ac      	cmp	r4, r5
 80031be:	d101      	bne.n	80031c4 <__sfputs_r+0x12>
 80031c0:	2000      	movs	r0, #0
 80031c2:	e007      	b.n	80031d4 <__sfputs_r+0x22>
 80031c4:	f814 1b01 	ldrb.w	r1, [r4], #1
 80031c8:	463a      	mov	r2, r7
 80031ca:	4630      	mov	r0, r6
 80031cc:	f7ff ffda 	bl	8003184 <__sfputc_r>
 80031d0:	1c43      	adds	r3, r0, #1
 80031d2:	d1f3      	bne.n	80031bc <__sfputs_r+0xa>
 80031d4:	bdf8      	pop	{r3, r4, r5, r6, r7, pc}
	...

080031d8 <_vfiprintf_r>:
 80031d8:	e92d 4ff0 	stmdb	sp!, {r4, r5, r6, r7, r8, r9, sl, fp, lr}
 80031dc:	460d      	mov	r5, r1
 80031de:	b09d      	sub	sp, #116	; 0x74
 80031e0:	4614      	mov	r4, r2
 80031e2:	4698      	mov	r8, r3
 80031e4:	4606      	mov	r6, r0
 80031e6:	b118      	cbz	r0, 80031f0 <_vfiprintf_r+0x18>
 80031e8:	6a03      	ldr	r3, [r0, #32]
 80031ea:	b90b      	cbnz	r3, 80031f0 <_vfiprintf_r+0x18>
 80031ec:	f7fe fbc8 	bl	8001980 <__sinit>
 80031f0:	6e6b      	ldr	r3, [r5, #100]	; 0x64
 80031f2:	07d9      	lsls	r1, r3, #31
 80031f4:	d405      	bmi.n	8003202 <_vfiprintf_r+0x2a>
 80031f6:	89ab      	ldrh	r3, [r5, #12]
 80031f8:	059a      	lsls	r2, r3, #22
 80031fa:	d402      	bmi.n	8003202 <_vfiprintf_r+0x2a>
 80031fc:	6da8      	ldr	r0, [r5, #88]	; 0x58
 80031fe:	f7fe fcc8 	bl	8001b92 <__retarget_lock_acquire_recursive>
 8003202:	89ab      	ldrh	r3, [r5, #12]
 8003204:	071b      	lsls	r3, r3, #28
 8003206:	d501      	bpl.n	800320c <_vfiprintf_r+0x34>
 8003208:	692b      	ldr	r3, [r5, #16]
 800320a:	b99b      	cbnz	r3, 8003234 <_vfiprintf_r+0x5c>
 800320c:	4629      	mov	r1, r5
 800320e:	4630      	mov	r0, r6
 8003210:	f000 f9e8 	bl	80035e4 <__swsetup_r>
 8003214:	b170      	cbz	r0, 8003234 <_vfiprintf_r+0x5c>
 8003216:	6e6b      	ldr	r3, [r5, #100]	; 0x64
 8003218:	07dc      	lsls	r4, r3, #31
 800321a:	d504      	bpl.n	8003226 <_vfiprintf_r+0x4e>
 800321c:	f04f 30ff 	mov.w	r0, #4294967295
 8003220:	b01d      	add	sp, #116	; 0x74
 8003222:	e8bd 8ff0 	ldmia.w	sp!, {r4, r5, r6, r7, r8, r9, sl, fp, pc}
 8003226:	89ab      	ldrh	r3, [r5, #12]
 8003228:	0598      	lsls	r0, r3, #22
 800322a:	d4f7      	bmi.n	800321c <_vfiprintf_r+0x44>
 800322c:	6da8      	ldr	r0, [r5, #88]	; 0x58
 800322e:	f7fe fcb1 	bl	8001b94 <__retarget_lock_release_recursive>
 8003232:	e7f3      	b.n	800321c <_vfiprintf_r+0x44>
 8003234:	2300      	movs	r3, #0
 8003236:	9309      	str	r3, [sp, #36]	; 0x24
 8003238:	2320      	movs	r3, #32
 800323a:	f88d 3029 	strb.w	r3, [sp, #41]	; 0x29
 800323e:	f8cd 800c 	str.w	r8, [sp, #12]
 8003242:	2330      	movs	r3, #48	; 0x30
 8003244:	f8df 81b0 	ldr.w	r8, [pc, #432]	; 80033f8 <_vfiprintf_r+0x220>
 8003248:	f88d 302a 	strb.w	r3, [sp, #42]	; 0x2a
 800324c:	f04f 0901 	mov.w	r9, #1
 8003250:	4623      	mov	r3, r4
 8003252:	469a      	mov	sl, r3
 8003254:	f813 2b01 	ldrb.w	r2, [r3], #1
 8003258:	b10a      	cbz	r2, 800325e <_vfiprintf_r+0x86>
 800325a:	2a25      	cmp	r2, #37	; 0x25
 800325c:	d1f9      	bne.n	8003252 <_vfiprintf_r+0x7a>
 800325e:	ebba 0b04 	subs.w	fp, sl, r4
 8003262:	d00b      	beq.n	800327c <_vfiprintf_r+0xa4>
 8003264:	465b      	mov	r3, fp
 8003266:	4622      	mov	r2, r4
 8003268:	4629      	mov	r1, r5
 800326a:	4630      	mov	r0, r6
 800326c:	f7ff ffa1 	bl	80031b2 <__sfputs_r>
 8003270:	3001      	adds	r0, #1
 8003272:	f000 80a9 	beq.w	80033c8 <_vfiprintf_r+0x1f0>
 8003276:	9a09      	ldr	r2, [sp, #36]	; 0x24
 8003278:	445a      	add	r2, fp
 800327a:	9209      	str	r2, [sp, #36]	; 0x24
 800327c:	f89a 3000 	ldrb.w	r3, [sl]
 8003280:	2b00      	cmp	r3, #0
 8003282:	f000 80a1 	beq.w	80033c8 <_vfiprintf_r+0x1f0>
 8003286:	2300      	movs	r3, #0
 8003288:	f04f 32ff 	mov.w	r2, #4294967295
 800328c:	e9cd 2305 	strd	r2, r3, [sp, #20]
 8003290:	f10a 0a01 	add.w	sl, sl, #1
 8003294:	9304      	str	r3, [sp, #16]
 8003296:	9307      	str	r3, [sp, #28]
 8003298:	f88d 3053 	strb.w	r3, [sp, #83]	; 0x53
 800329c:	931a      	str	r3, [sp, #104]	; 0x68
 800329e:	4654      	mov	r4, sl
 80032a0:	2205      	movs	r2, #5
 80032a2:	f814 1b01 	ldrb.w	r1, [r4], #1
 80032a6:	4854      	ldr	r0, [pc, #336]	; (80033f8 <_vfiprintf_r+0x220>)
 80032a8:	f7fc ff9a 	bl	80001e0 <memchr>
 80032ac:	9a04      	ldr	r2, [sp, #16]
 80032ae:	b9d8      	cbnz	r0, 80032e8 <_vfiprintf_r+0x110>
 80032b0:	06d1      	lsls	r1, r2, #27
 80032b2:	bf44      	itt	mi
 80032b4:	2320      	movmi	r3, #32
 80032b6:	f88d 3053 	strbmi.w	r3, [sp, #83]	; 0x53
 80032ba:	0713      	lsls	r3, r2, #28
 80032bc:	bf44      	itt	mi
 80032be:	232b      	movmi	r3, #43	; 0x2b
 80032c0:	f88d 3053 	strbmi.w	r3, [sp, #83]	; 0x53
 80032c4:	f89a 3000 	ldrb.w	r3, [sl]
 80032c8:	2b2a      	cmp	r3, #42	; 0x2a
 80032ca:	d015      	beq.n	80032f8 <_vfiprintf_r+0x120>
 80032cc:	9a07      	ldr	r2, [sp, #28]
 80032ce:	4654      	mov	r4, sl
 80032d0:	2000      	movs	r0, #0
 80032d2:	f04f 0c0a 	mov.w	ip, #10
 80032d6:	4621      	mov	r1, r4
 80032d8:	f811 3b01 	ldrb.w	r3, [r1], #1
 80032dc:	3b30      	subs	r3, #48	; 0x30
 80032de:	2b09      	cmp	r3, #9
 80032e0:	d94d      	bls.n	800337e <_vfiprintf_r+0x1a6>
 80032e2:	b1b0      	cbz	r0, 8003312 <_vfiprintf_r+0x13a>
 80032e4:	9207      	str	r2, [sp, #28]
 80032e6:	e014      	b.n	8003312 <_vfiprintf_r+0x13a>
 80032e8:	eba0 0308 	sub.w	r3, r0, r8
 80032ec:	fa09 f303 	lsl.w	r3, r9, r3
 80032f0:	4313      	orrs	r3, r2
 80032f2:	9304      	str	r3, [sp, #16]
 80032f4:	46a2      	mov	sl, r4
 80032f6:	e7d2      	b.n	800329e <_vfiprintf_r+0xc6>
 80032f8:	9b03      	ldr	r3, [sp, #12]
 80032fa:	1d19      	adds	r1, r3, #4
 80032fc:	681b      	ldr	r3, [r3, #0]
 80032fe:	9103      	str	r1, [sp, #12]
 8003300:	2b00      	cmp	r3, #0
 8003302:	bfbb      	ittet	lt
 8003304:	425b      	neglt	r3, r3
 8003306:	f042 0202 	orrlt.w	r2, r2, #2
 800330a:	9307      	strge	r3, [sp, #28]
 800330c:	9307      	strlt	r3, [sp, #28]
 800330e:	bfb8      	it	lt
 8003310:	9204      	strlt	r2, [sp, #16]
 8003312:	7823      	ldrb	r3, [r4, #0]
 8003314:	2b2e      	cmp	r3, #46	; 0x2e
 8003316:	d10c      	bne.n	8003332 <_vfiprintf_r+0x15a>
 8003318:	7863      	ldrb	r3, [r4, #1]
 800331a:	2b2a      	cmp	r3, #42	; 0x2a
 800331c:	d134      	bne.n	8003388 <_vfiprintf_r+0x1b0>
 800331e:	9b03      	ldr	r3, [sp, #12]
 8003320:	1d1a      	adds	r2, r3, #4
 8003322:	681b      	ldr	r3, [r3, #0]
 8003324:	9203      	str	r2, [sp, #12]
 8003326:	2b00      	cmp	r3, #0
 8003328:	bfb8      	it	lt
 800332a:	f04f 33ff 	movlt.w	r3, #4294967295
 800332e:	3402      	adds	r4, #2
 8003330:	9305      	str	r3, [sp, #20]
 8003332:	f8df a0d4 	ldr.w	sl, [pc, #212]	; 8003408 <_vfiprintf_r+0x230>
 8003336:	7821      	ldrb	r1, [r4, #0]
 8003338:	2203      	movs	r2, #3
 800333a:	4650      	mov	r0, sl
 800333c:	f7fc ff50 	bl	80001e0 <memchr>
 8003340:	b138      	cbz	r0, 8003352 <_vfiprintf_r+0x17a>
 8003342:	9b04      	ldr	r3, [sp, #16]
 8003344:	eba0 000a 	sub.w	r0, r0, sl
 8003348:	2240      	movs	r2, #64	; 0x40
 800334a:	4082      	lsls	r2, r0
 800334c:	4313      	orrs	r3, r2
 800334e:	3401      	adds	r4, #1
 8003350:	9304      	str	r3, [sp, #16]
 8003352:	f814 1b01 	ldrb.w	r1, [r4], #1
 8003356:	4829      	ldr	r0, [pc, #164]	; (80033fc <_vfiprintf_r+0x224>)
 8003358:	f88d 1028 	strb.w	r1, [sp, #40]	; 0x28
 800335c:	2206      	movs	r2, #6
 800335e:	f7fc ff3f 	bl	80001e0 <memchr>
 8003362:	2800      	cmp	r0, #0
 8003364:	d03f      	beq.n	80033e6 <_vfiprintf_r+0x20e>
 8003366:	4b26      	ldr	r3, [pc, #152]	; (8003400 <_vfiprintf_r+0x228>)
 8003368:	bb1b      	cbnz	r3, 80033b2 <_vfiprintf_r+0x1da>
 800336a:	9b03      	ldr	r3, [sp, #12]
 800336c:	3307      	adds	r3, #7
 800336e:	f023 0307 	bic.w	r3, r3, #7
 8003372:	3308      	adds	r3, #8
 8003374:	9303      	str	r3, [sp, #12]
 8003376:	9b09      	ldr	r3, [sp, #36]	; 0x24
 8003378:	443b      	add	r3, r7
 800337a:	9309      	str	r3, [sp, #36]	; 0x24
 800337c:	e768      	b.n	8003250 <_vfiprintf_r+0x78>
 800337e:	fb0c 3202 	mla	r2, ip, r2, r3
 8003382:	460c      	mov	r4, r1
 8003384:	2001      	movs	r0, #1
 8003386:	e7a6      	b.n	80032d6 <_vfiprintf_r+0xfe>
 8003388:	2300      	movs	r3, #0
 800338a:	3401      	adds	r4, #1
 800338c:	9305      	str	r3, [sp, #20]
 800338e:	4619      	mov	r1, r3
 8003390:	f04f 0c0a 	mov.w	ip, #10
 8003394:	4620      	mov	r0, r4
 8003396:	f810 2b01 	ldrb.w	r2, [r0], #1
 800339a:	3a30      	subs	r2, #48	; 0x30
 800339c:	2a09      	cmp	r2, #9
 800339e:	d903      	bls.n	80033a8 <_vfiprintf_r+0x1d0>
 80033a0:	2b00      	cmp	r3, #0
 80033a2:	d0c6      	beq.n	8003332 <_vfiprintf_r+0x15a>
 80033a4:	9105      	str	r1, [sp, #20]
 80033a6:	e7c4      	b.n	8003332 <_vfiprintf_r+0x15a>
 80033a8:	fb0c 2101 	mla	r1, ip, r1, r2
 80033ac:	4604      	mov	r4, r0
 80033ae:	2301      	movs	r3, #1
 80033b0:	e7f0      	b.n	8003394 <_vfiprintf_r+0x1bc>
 80033b2:	ab03      	add	r3, sp, #12
 80033b4:	9300      	str	r3, [sp, #0]
 80033b6:	462a      	mov	r2, r5
 80033b8:	4b12      	ldr	r3, [pc, #72]	; (8003404 <_vfiprintf_r+0x22c>)
 80033ba:	a904      	add	r1, sp, #16
 80033bc:	4630      	mov	r0, r6
 80033be:	f7fd fe8d 	bl	80010dc <_printf_float>
 80033c2:	4607      	mov	r7, r0
 80033c4:	1c78      	adds	r0, r7, #1
 80033c6:	d1d6      	bne.n	8003376 <_vfiprintf_r+0x19e>
 80033c8:	6e6b      	ldr	r3, [r5, #100]	; 0x64
 80033ca:	07d9      	lsls	r1, r3, #31
 80033cc:	d405      	bmi.n	80033da <_vfiprintf_r+0x202>
 80033ce:	89ab      	ldrh	r3, [r5, #12]
 80033d0:	059a      	lsls	r2, r3, #22
 80033d2:	d402      	bmi.n	80033da <_vfiprintf_r+0x202>
 80033d4:	6da8      	ldr	r0, [r5, #88]	; 0x58
 80033d6:	f7fe fbdd 	bl	8001b94 <__retarget_lock_release_recursive>
 80033da:	89ab      	ldrh	r3, [r5, #12]
 80033dc:	065b      	lsls	r3, r3, #25
 80033de:	f53f af1d 	bmi.w	800321c <_vfiprintf_r+0x44>
 80033e2:	9809      	ldr	r0, [sp, #36]	; 0x24
 80033e4:	e71c      	b.n	8003220 <_vfiprintf_r+0x48>
 80033e6:	ab03      	add	r3, sp, #12
 80033e8:	9300      	str	r3, [sp, #0]
 80033ea:	462a      	mov	r2, r5
 80033ec:	4b05      	ldr	r3, [pc, #20]	; (8003404 <_vfiprintf_r+0x22c>)
 80033ee:	a904      	add	r1, sp, #16
 80033f0:	4630      	mov	r0, r6
 80033f2:	f7fe f917 	bl	8001624 <_printf_i>
 80033f6:	e7e4      	b.n	80033c2 <_vfiprintf_r+0x1ea>
 80033f8:	08003b84 	.word	0x08003b84
 80033fc:	08003b8e 	.word	0x08003b8e
 8003400:	080010dd 	.word	0x080010dd
 8003404:	080031b3 	.word	0x080031b3
 8003408:	08003b8a 	.word	0x08003b8a

0800340c <__sflush_r>:
 800340c:	898a      	ldrh	r2, [r1, #12]
 800340e:	e92d 41f0 	stmdb	sp!, {r4, r5, r6, r7, r8, lr}
 8003412:	4605      	mov	r5, r0
 8003414:	0710      	lsls	r0, r2, #28
 8003416:	460c      	mov	r4, r1
 8003418:	d458      	bmi.n	80034cc <__sflush_r+0xc0>
 800341a:	684b      	ldr	r3, [r1, #4]
 800341c:	2b00      	cmp	r3, #0
 800341e:	dc05      	bgt.n	800342c <__sflush_r+0x20>
 8003420:	6c0b      	ldr	r3, [r1, #64]	; 0x40
 8003422:	2b00      	cmp	r3, #0
 8003424:	dc02      	bgt.n	800342c <__sflush_r+0x20>
 8003426:	2000      	movs	r0, #0
 8003428:	e8bd 81f0 	ldmia.w	sp!, {r4, r5, r6, r7, r8, pc}
 800342c:	6ae6      	ldr	r6, [r4, #44]	; 0x2c
 800342e:	2e00      	cmp	r6, #0
 8003430:	d0f9      	beq.n	8003426 <__sflush_r+0x1a>
 8003432:	2300      	movs	r3, #0
 8003434:	f412 5280 	ands.w	r2, r2, #4096	; 0x1000
 8003438:	682f      	ldr	r7, [r5, #0]
 800343a:	6a21      	ldr	r1, [r4, #32]
 800343c:	602b      	str	r3, [r5, #0]
 800343e:	d032      	beq.n	80034a6 <__sflush_r+0x9a>
 8003440:	6d60      	ldr	r0, [r4, #84]	; 0x54
 8003442:	89a3      	ldrh	r3, [r4, #12]
 8003444:	075a      	lsls	r2, r3, #29
 8003446:	d505      	bpl.n	8003454 <__sflush_r+0x48>
 8003448:	6863      	ldr	r3, [r4, #4]
 800344a:	1ac0      	subs	r0, r0, r3
 800344c:	6b63      	ldr	r3, [r4, #52]	; 0x34
 800344e:	b10b      	cbz	r3, 8003454 <__sflush_r+0x48>
 8003450:	6c23      	ldr	r3, [r4, #64]	; 0x40
 8003452:	1ac0      	subs	r0, r0, r3
 8003454:	2300      	movs	r3, #0
 8003456:	4602      	mov	r2, r0
 8003458:	6ae6      	ldr	r6, [r4, #44]	; 0x2c
 800345a:	6a21      	ldr	r1, [r4, #32]
 800345c:	4628      	mov	r0, r5
 800345e:	47b0      	blx	r6
 8003460:	1c43      	adds	r3, r0, #1
 8003462:	89a3      	ldrh	r3, [r4, #12]
 8003464:	d106      	bne.n	8003474 <__sflush_r+0x68>
 8003466:	6829      	ldr	r1, [r5, #0]
 8003468:	291d      	cmp	r1, #29
 800346a:	d82b      	bhi.n	80034c4 <__sflush_r+0xb8>
 800346c:	4a29      	ldr	r2, [pc, #164]	; (8003514 <__sflush_r+0x108>)
 800346e:	410a      	asrs	r2, r1
 8003470:	07d6      	lsls	r6, r2, #31
 8003472:	d427      	bmi.n	80034c4 <__sflush_r+0xb8>
 8003474:	2200      	movs	r2, #0
 8003476:	6062      	str	r2, [r4, #4]
 8003478:	04d9      	lsls	r1, r3, #19
 800347a:	6922      	ldr	r2, [r4, #16]
 800347c:	6022      	str	r2, [r4, #0]
 800347e:	d504      	bpl.n	800348a <__sflush_r+0x7e>
 8003480:	1c42      	adds	r2, r0, #1
 8003482:	d101      	bne.n	8003488 <__sflush_r+0x7c>
 8003484:	682b      	ldr	r3, [r5, #0]
 8003486:	b903      	cbnz	r3, 800348a <__sflush_r+0x7e>
 8003488:	6560      	str	r0, [r4, #84]	; 0x54
 800348a:	6b61      	ldr	r1, [r4, #52]	; 0x34
 800348c:	602f      	str	r7, [r5, #0]
 800348e:	2900      	cmp	r1, #0
 8003490:	d0c9      	beq.n	8003426 <__sflush_r+0x1a>
 8003492:	f104 0344 	add.w	r3, r4, #68	; 0x44
 8003496:	4299      	cmp	r1, r3
 8003498:	d002      	beq.n	80034a0 <__sflush_r+0x94>
 800349a:	4628      	mov	r0, r5
 800349c:	f7ff f9f6 	bl	800288c <_free_r>
 80034a0:	2000      	movs	r0, #0
 80034a2:	6360      	str	r0, [r4, #52]	; 0x34
 80034a4:	e7c0      	b.n	8003428 <__sflush_r+0x1c>
 80034a6:	2301      	movs	r3, #1
 80034a8:	4628      	mov	r0, r5
 80034aa:	47b0      	blx	r6
 80034ac:	1c41      	adds	r1, r0, #1
 80034ae:	d1c8      	bne.n	8003442 <__sflush_r+0x36>
 80034b0:	682b      	ldr	r3, [r5, #0]
 80034b2:	2b00      	cmp	r3, #0
 80034b4:	d0c5      	beq.n	8003442 <__sflush_r+0x36>
 80034b6:	2b1d      	cmp	r3, #29
 80034b8:	d001      	beq.n	80034be <__sflush_r+0xb2>
 80034ba:	2b16      	cmp	r3, #22
 80034bc:	d101      	bne.n	80034c2 <__sflush_r+0xb6>
 80034be:	602f      	str	r7, [r5, #0]
 80034c0:	e7b1      	b.n	8003426 <__sflush_r+0x1a>
 80034c2:	89a3      	ldrh	r3, [r4, #12]
 80034c4:	f043 0340 	orr.w	r3, r3, #64	; 0x40
 80034c8:	81a3      	strh	r3, [r4, #12]
 80034ca:	e7ad      	b.n	8003428 <__sflush_r+0x1c>
 80034cc:	690f      	ldr	r7, [r1, #16]
 80034ce:	2f00      	cmp	r7, #0
 80034d0:	d0a9      	beq.n	8003426 <__sflush_r+0x1a>
 80034d2:	0793      	lsls	r3, r2, #30
 80034d4:	680e      	ldr	r6, [r1, #0]
 80034d6:	bf08      	it	eq
 80034d8:	694b      	ldreq	r3, [r1, #20]
 80034da:	600f      	str	r7, [r1, #0]
 80034dc:	bf18      	it	ne
 80034de:	2300      	movne	r3, #0
 80034e0:	eba6 0807 	sub.w	r8, r6, r7
 80034e4:	608b      	str	r3, [r1, #8]
 80034e6:	f1b8 0f00 	cmp.w	r8, #0
 80034ea:	dd9c      	ble.n	8003426 <__sflush_r+0x1a>
 80034ec:	6a21      	ldr	r1, [r4, #32]
 80034ee:	6aa6      	ldr	r6, [r4, #40]	; 0x28
 80034f0:	4643      	mov	r3, r8
 80034f2:	463a      	mov	r2, r7
 80034f4:	4628      	mov	r0, r5
 80034f6:	47b0      	blx	r6
 80034f8:	2800      	cmp	r0, #0
 80034fa:	dc06      	bgt.n	800350a <__sflush_r+0xfe>
 80034fc:	89a3      	ldrh	r3, [r4, #12]
 80034fe:	f043 0340 	orr.w	r3, r3, #64	; 0x40
 8003502:	81a3      	strh	r3, [r4, #12]
 8003504:	f04f 30ff 	mov.w	r0, #4294967295
 8003508:	e78e      	b.n	8003428 <__sflush_r+0x1c>
 800350a:	4407      	add	r7, r0
 800350c:	eba8 0800 	sub.w	r8, r8, r0
 8003510:	e7e9      	b.n	80034e6 <__sflush_r+0xda>
 8003512:	bf00      	nop
 8003514:	dfbffffe 	.word	0xdfbffffe

08003518 <_fflush_r>:
 8003518:	b538      	push	{r3, r4, r5, lr}
 800351a:	690b      	ldr	r3, [r1, #16]
 800351c:	4605      	mov	r5, r0
 800351e:	460c      	mov	r4, r1
 8003520:	b913      	cbnz	r3, 8003528 <_fflush_r+0x10>
 8003522:	2500      	movs	r5, #0
 8003524:	4628      	mov	r0, r5
 8003526:	bd38      	pop	{r3, r4, r5, pc}
 8003528:	b118      	cbz	r0, 8003532 <_fflush_r+0x1a>
 800352a:	6a03      	ldr	r3, [r0, #32]
 800352c:	b90b      	cbnz	r3, 8003532 <_fflush_r+0x1a>
 800352e:	f7fe fa27 	bl	8001980 <__sinit>
 8003532:	f9b4 300c 	ldrsh.w	r3, [r4, #12]
 8003536:	2b00      	cmp	r3, #0
 8003538:	d0f3      	beq.n	8003522 <_fflush_r+0xa>
 800353a:	6e62      	ldr	r2, [r4, #100]	; 0x64
 800353c:	07d0      	lsls	r0, r2, #31
 800353e:	d404      	bmi.n	800354a <_fflush_r+0x32>
 8003540:	0599      	lsls	r1, r3, #22
 8003542:	d402      	bmi.n	800354a <_fflush_r+0x32>
 8003544:	6da0      	ldr	r0, [r4, #88]	; 0x58
 8003546:	f7fe fb24 	bl	8001b92 <__retarget_lock_acquire_recursive>
 800354a:	4628      	mov	r0, r5
 800354c:	4621      	mov	r1, r4
 800354e:	f7ff ff5d 	bl	800340c <__sflush_r>
 8003552:	6e63      	ldr	r3, [r4, #100]	; 0x64
 8003554:	07da      	lsls	r2, r3, #31
 8003556:	4605      	mov	r5, r0
 8003558:	d4e4      	bmi.n	8003524 <_fflush_r+0xc>
 800355a:	89a3      	ldrh	r3, [r4, #12]
 800355c:	059b      	lsls	r3, r3, #22
 800355e:	d4e1      	bmi.n	8003524 <_fflush_r+0xc>
 8003560:	6da0      	ldr	r0, [r4, #88]	; 0x58
 8003562:	f7fe fb17 	bl	8001b94 <__retarget_lock_release_recursive>
 8003566:	e7dd      	b.n	8003524 <_fflush_r+0xc>

08003568 <__swbuf_r>:
 8003568:	b5f8      	push	{r3, r4, r5, r6, r7, lr}
 800356a:	460e      	mov	r6, r1
 800356c:	4614      	mov	r4, r2
 800356e:	4605      	mov	r5, r0
 8003570:	b118      	cbz	r0, 800357a <__swbuf_r+0x12>
 8003572:	6a03      	ldr	r3, [r0, #32]
 8003574:	b90b      	cbnz	r3, 800357a <__swbuf_r+0x12>
 8003576:	f7fe fa03 	bl	8001980 <__sinit>
 800357a:	69a3      	ldr	r3, [r4, #24]
 800357c:	60a3      	str	r3, [r4, #8]
 800357e:	89a3      	ldrh	r3, [r4, #12]
 8003580:	071a      	lsls	r2, r3, #28
 8003582:	d525      	bpl.n	80035d0 <__swbuf_r+0x68>
 8003584:	6923      	ldr	r3, [r4, #16]
 8003586:	b31b      	cbz	r3, 80035d0 <__swbuf_r+0x68>
 8003588:	6823      	ldr	r3, [r4, #0]
 800358a:	6922      	ldr	r2, [r4, #16]
 800358c:	1a98      	subs	r0, r3, r2
 800358e:	6963      	ldr	r3, [r4, #20]
 8003590:	b2f6      	uxtb	r6, r6
 8003592:	4283      	cmp	r3, r0
 8003594:	4637      	mov	r7, r6
 8003596:	dc04      	bgt.n	80035a2 <__swbuf_r+0x3a>
 8003598:	4621      	mov	r1, r4
 800359a:	4628      	mov	r0, r5
 800359c:	f7ff ffbc 	bl	8003518 <_fflush_r>
 80035a0:	b9e0      	cbnz	r0, 80035dc <__swbuf_r+0x74>
 80035a2:	68a3      	ldr	r3, [r4, #8]
 80035a4:	3b01      	subs	r3, #1
 80035a6:	60a3      	str	r3, [r4, #8]
 80035a8:	6823      	ldr	r3, [r4, #0]
 80035aa:	1c5a      	adds	r2, r3, #1
 80035ac:	6022      	str	r2, [r4, #0]
 80035ae:	701e      	strb	r6, [r3, #0]
 80035b0:	6962      	ldr	r2, [r4, #20]
 80035b2:	1c43      	adds	r3, r0, #1
 80035b4:	429a      	cmp	r2, r3
 80035b6:	d004      	beq.n	80035c2 <__swbuf_r+0x5a>
 80035b8:	89a3      	ldrh	r3, [r4, #12]
 80035ba:	07db      	lsls	r3, r3, #31
 80035bc:	d506      	bpl.n	80035cc <__swbuf_r+0x64>
 80035be:	2e0a      	cmp	r6, #10
 80035c0:	d104      	bne.n	80035cc <__swbuf_r+0x64>
 80035c2:	4621      	mov	r1, r4
 80035c4:	4628      	mov	r0, r5
 80035c6:	f7ff ffa7 	bl	8003518 <_fflush_r>
 80035ca:	b938      	cbnz	r0, 80035dc <__swbuf_r+0x74>
 80035cc:	4638      	mov	r0, r7
 80035ce:	bdf8      	pop	{r3, r4, r5, r6, r7, pc}
 80035d0:	4621      	mov	r1, r4
 80035d2:	4628      	mov	r0, r5
 80035d4:	f000 f806 	bl	80035e4 <__swsetup_r>
 80035d8:	2800      	cmp	r0, #0
 80035da:	d0d5      	beq.n	8003588 <__swbuf_r+0x20>
 80035dc:	f04f 37ff 	mov.w	r7, #4294967295
 80035e0:	e7f4      	b.n	80035cc <__swbuf_r+0x64>
	...

080035e4 <__swsetup_r>:
 80035e4:	b538      	push	{r3, r4, r5, lr}
 80035e6:	4b2a      	ldr	r3, [pc, #168]	; (8003690 <__swsetup_r+0xac>)
 80035e8:	4605      	mov	r5, r0
 80035ea:	6818      	ldr	r0, [r3, #0]
 80035ec:	460c      	mov	r4, r1
 80035ee:	b118      	cbz	r0, 80035f8 <__swsetup_r+0x14>
 80035f0:	6a03      	ldr	r3, [r0, #32]
 80035f2:	b90b      	cbnz	r3, 80035f8 <__swsetup_r+0x14>
 80035f4:	f7fe f9c4 	bl	8001980 <__sinit>
 80035f8:	89a3      	ldrh	r3, [r4, #12]
 80035fa:	f9b4 200c 	ldrsh.w	r2, [r4, #12]
 80035fe:	0718      	lsls	r0, r3, #28
 8003600:	d422      	bmi.n	8003648 <__swsetup_r+0x64>
 8003602:	06d9      	lsls	r1, r3, #27
 8003604:	d407      	bmi.n	8003616 <__swsetup_r+0x32>
 8003606:	2309      	movs	r3, #9
 8003608:	602b      	str	r3, [r5, #0]
 800360a:	f042 0340 	orr.w	r3, r2, #64	; 0x40
 800360e:	81a3      	strh	r3, [r4, #12]
 8003610:	f04f 30ff 	mov.w	r0, #4294967295
 8003614:	e034      	b.n	8003680 <__swsetup_r+0x9c>
 8003616:	0758      	lsls	r0, r3, #29
 8003618:	d512      	bpl.n	8003640 <__swsetup_r+0x5c>
 800361a:	6b61      	ldr	r1, [r4, #52]	; 0x34
 800361c:	b141      	cbz	r1, 8003630 <__swsetup_r+0x4c>
 800361e:	f104 0344 	add.w	r3, r4, #68	; 0x44
 8003622:	4299      	cmp	r1, r3
 8003624:	d002      	beq.n	800362c <__swsetup_r+0x48>
 8003626:	4628      	mov	r0, r5
 8003628:	f7ff f930 	bl	800288c <_free_r>
 800362c:	2300      	movs	r3, #0
 800362e:	6363      	str	r3, [r4, #52]	; 0x34
 8003630:	89a3      	ldrh	r3, [r4, #12]
 8003632:	f023 0324 	bic.w	r3, r3, #36	; 0x24
 8003636:	81a3      	strh	r3, [r4, #12]
 8003638:	2300      	movs	r3, #0
 800363a:	6063      	str	r3, [r4, #4]
 800363c:	6923      	ldr	r3, [r4, #16]
 800363e:	6023      	str	r3, [r4, #0]
 8003640:	89a3      	ldrh	r3, [r4, #12]
 8003642:	f043 0308 	orr.w	r3, r3, #8
 8003646:	81a3      	strh	r3, [r4, #12]
 8003648:	6923      	ldr	r3, [r4, #16]
 800364a:	b94b      	cbnz	r3, 8003660 <__swsetup_r+0x7c>
 800364c:	89a3      	ldrh	r3, [r4, #12]
 800364e:	f403 7320 	and.w	r3, r3, #640	; 0x280
 8003652:	f5b3 7f00 	cmp.w	r3, #512	; 0x200
 8003656:	d003      	beq.n	8003660 <__swsetup_r+0x7c>
 8003658:	4621      	mov	r1, r4
 800365a:	4628      	mov	r0, r5
 800365c:	f000 f8c4 	bl	80037e8 <__smakebuf_r>
 8003660:	89a0      	ldrh	r0, [r4, #12]
 8003662:	f9b4 200c 	ldrsh.w	r2, [r4, #12]
 8003666:	f010 0301 	ands.w	r3, r0, #1
 800366a:	d00a      	beq.n	8003682 <__swsetup_r+0x9e>
 800366c:	2300      	movs	r3, #0
 800366e:	60a3      	str	r3, [r4, #8]
 8003670:	6963      	ldr	r3, [r4, #20]
 8003672:	425b      	negs	r3, r3
 8003674:	61a3      	str	r3, [r4, #24]
 8003676:	6923      	ldr	r3, [r4, #16]
 8003678:	b943      	cbnz	r3, 800368c <__swsetup_r+0xa8>
 800367a:	f010 0080 	ands.w	r0, r0, #128	; 0x80
 800367e:	d1c4      	bne.n	800360a <__swsetup_r+0x26>
 8003680:	bd38      	pop	{r3, r4, r5, pc}
 8003682:	0781      	lsls	r1, r0, #30
 8003684:	bf58      	it	pl
 8003686:	6963      	ldrpl	r3, [r4, #20]
 8003688:	60a3      	str	r3, [r4, #8]
 800368a:	e7f4      	b.n	8003676 <__swsetup_r+0x92>
 800368c:	2000      	movs	r0, #0
 800368e:	e7f7      	b.n	8003680 <__swsetup_r+0x9c>
 8003690:	20000058 	.word	0x20000058

08003694 <_sbrk_r>:
 8003694:	b538      	push	{r3, r4, r5, lr}
 8003696:	4d06      	ldr	r5, [pc, #24]	; (80036b0 <_sbrk_r+0x1c>)
 8003698:	2300      	movs	r3, #0
 800369a:	4604      	mov	r4, r0
 800369c:	4608      	mov	r0, r1
 800369e:	602b      	str	r3, [r5, #0]
 80036a0:	f7fd fbbc 	bl	8000e1c <_sbrk>
 80036a4:	1c43      	adds	r3, r0, #1
 80036a6:	d102      	bne.n	80036ae <_sbrk_r+0x1a>
 80036a8:	682b      	ldr	r3, [r5, #0]
 80036aa:	b103      	cbz	r3, 80036ae <_sbrk_r+0x1a>
 80036ac:	6023      	str	r3, [r4, #0]
 80036ae:	bd38      	pop	{r3, r4, r5, pc}
 80036b0:	20000334 	.word	0x20000334

080036b4 <memcpy>:
 80036b4:	440a      	add	r2, r1
 80036b6:	4291      	cmp	r1, r2
 80036b8:	f100 33ff 	add.w	r3, r0, #4294967295
 80036bc:	d100      	bne.n	80036c0 <memcpy+0xc>
 80036be:	4770      	bx	lr
 80036c0:	b510      	push	{r4, lr}
 80036c2:	f811 4b01 	ldrb.w	r4, [r1], #1
 80036c6:	f803 4f01 	strb.w	r4, [r3, #1]!
 80036ca:	4291      	cmp	r1, r2
 80036cc:	d1f9      	bne.n	80036c2 <memcpy+0xe>
 80036ce:	bd10      	pop	{r4, pc}

080036d0 <__assert_func>:
 80036d0:	b51f      	push	{r0, r1, r2, r3, r4, lr}
 80036d2:	4614      	mov	r4, r2
 80036d4:	461a      	mov	r2, r3
 80036d6:	4b09      	ldr	r3, [pc, #36]	; (80036fc <__assert_func+0x2c>)
 80036d8:	681b      	ldr	r3, [r3, #0]
 80036da:	4605      	mov	r5, r0
 80036dc:	68d8      	ldr	r0, [r3, #12]
 80036de:	b14c      	cbz	r4, 80036f4 <__assert_func+0x24>
 80036e0:	4b07      	ldr	r3, [pc, #28]	; (8003700 <__assert_func+0x30>)
 80036e2:	9100      	str	r1, [sp, #0]
 80036e4:	e9cd 3401 	strd	r3, r4, [sp, #4]
 80036e8:	4906      	ldr	r1, [pc, #24]	; (8003704 <__assert_func+0x34>)
 80036ea:	462b      	mov	r3, r5
 80036ec:	f000 f844 	bl	8003778 <fiprintf>
 80036f0:	f000 f8d8 	bl	80038a4 <abort>
 80036f4:	4b04      	ldr	r3, [pc, #16]	; (8003708 <__assert_func+0x38>)
 80036f6:	461c      	mov	r4, r3
 80036f8:	e7f3      	b.n	80036e2 <__assert_func+0x12>
 80036fa:	bf00      	nop
 80036fc:	20000058 	.word	0x20000058
 8003700:	08003b9f 	.word	0x08003b9f
 8003704:	08003bac 	.word	0x08003bac
 8003708:	08003bda 	.word	0x08003bda

0800370c <_calloc_r>:
 800370c:	b537      	push	{r0, r1, r2, r4, r5, lr}
 800370e:	fba1 2402 	umull	r2, r4, r1, r2
 8003712:	b94c      	cbnz	r4, 8003728 <_calloc_r+0x1c>
 8003714:	4611      	mov	r1, r2
 8003716:	9201      	str	r2, [sp, #4]
 8003718:	f7ff f92c 	bl	8002974 <_malloc_r>
 800371c:	9a01      	ldr	r2, [sp, #4]
 800371e:	4605      	mov	r5, r0
 8003720:	b930      	cbnz	r0, 8003730 <_calloc_r+0x24>
 8003722:	4628      	mov	r0, r5
 8003724:	b003      	add	sp, #12
 8003726:	bd30      	pop	{r4, r5, pc}
 8003728:	220c      	movs	r2, #12
 800372a:	6002      	str	r2, [r0, #0]
 800372c:	2500      	movs	r5, #0
 800372e:	e7f8      	b.n	8003722 <_calloc_r+0x16>
 8003730:	4621      	mov	r1, r4
 8003732:	f7fe f9b0 	bl	8001a96 <memset>
 8003736:	e7f4      	b.n	8003722 <_calloc_r+0x16>

08003738 <__ascii_mbtowc>:
 8003738:	b082      	sub	sp, #8
 800373a:	b901      	cbnz	r1, 800373e <__ascii_mbtowc+0x6>
 800373c:	a901      	add	r1, sp, #4
 800373e:	b142      	cbz	r2, 8003752 <__ascii_mbtowc+0x1a>
 8003740:	b14b      	cbz	r3, 8003756 <__ascii_mbtowc+0x1e>
 8003742:	7813      	ldrb	r3, [r2, #0]
 8003744:	600b      	str	r3, [r1, #0]
 8003746:	7812      	ldrb	r2, [r2, #0]
 8003748:	1e10      	subs	r0, r2, #0
 800374a:	bf18      	it	ne
 800374c:	2001      	movne	r0, #1
 800374e:	b002      	add	sp, #8
 8003750:	4770      	bx	lr
 8003752:	4610      	mov	r0, r2
 8003754:	e7fb      	b.n	800374e <__ascii_mbtowc+0x16>
 8003756:	f06f 0001 	mvn.w	r0, #1
 800375a:	e7f8      	b.n	800374e <__ascii_mbtowc+0x16>

0800375c <__ascii_wctomb>:
 800375c:	b149      	cbz	r1, 8003772 <__ascii_wctomb+0x16>
 800375e:	2aff      	cmp	r2, #255	; 0xff
 8003760:	bf85      	ittet	hi
 8003762:	238a      	movhi	r3, #138	; 0x8a
 8003764:	6003      	strhi	r3, [r0, #0]
 8003766:	700a      	strbls	r2, [r1, #0]
 8003768:	f04f 30ff 	movhi.w	r0, #4294967295
 800376c:	bf98      	it	ls
 800376e:	2001      	movls	r0, #1
 8003770:	4770      	bx	lr
 8003772:	4608      	mov	r0, r1
 8003774:	4770      	bx	lr
	...

08003778 <fiprintf>:
 8003778:	b40e      	push	{r1, r2, r3}
 800377a:	b503      	push	{r0, r1, lr}
 800377c:	4601      	mov	r1, r0
 800377e:	ab03      	add	r3, sp, #12
 8003780:	4805      	ldr	r0, [pc, #20]	; (8003798 <fiprintf+0x20>)
 8003782:	f853 2b04 	ldr.w	r2, [r3], #4
 8003786:	6800      	ldr	r0, [r0, #0]
 8003788:	9301      	str	r3, [sp, #4]
 800378a:	f7ff fd25 	bl	80031d8 <_vfiprintf_r>
 800378e:	b002      	add	sp, #8
 8003790:	f85d eb04 	ldr.w	lr, [sp], #4
 8003794:	b003      	add	sp, #12
 8003796:	4770      	bx	lr
 8003798:	20000058 	.word	0x20000058

0800379c <__swhatbuf_r>:
 800379c:	b570      	push	{r4, r5, r6, lr}
 800379e:	460c      	mov	r4, r1
 80037a0:	f9b1 100e 	ldrsh.w	r1, [r1, #14]
 80037a4:	2900      	cmp	r1, #0
 80037a6:	b096      	sub	sp, #88	; 0x58
 80037a8:	4615      	mov	r5, r2
 80037aa:	461e      	mov	r6, r3
 80037ac:	da0d      	bge.n	80037ca <__swhatbuf_r+0x2e>
 80037ae:	89a3      	ldrh	r3, [r4, #12]
 80037b0:	f013 0f80 	tst.w	r3, #128	; 0x80
 80037b4:	f04f 0100 	mov.w	r1, #0
 80037b8:	bf0c      	ite	eq
 80037ba:	f44f 6380 	moveq.w	r3, #1024	; 0x400
 80037be:	2340      	movne	r3, #64	; 0x40
 80037c0:	2000      	movs	r0, #0
 80037c2:	6031      	str	r1, [r6, #0]
 80037c4:	602b      	str	r3, [r5, #0]
 80037c6:	b016      	add	sp, #88	; 0x58
 80037c8:	bd70      	pop	{r4, r5, r6, pc}
 80037ca:	466a      	mov	r2, sp
 80037cc:	f000 f848 	bl	8003860 <_fstat_r>
 80037d0:	2800      	cmp	r0, #0
 80037d2:	dbec      	blt.n	80037ae <__swhatbuf_r+0x12>
 80037d4:	9901      	ldr	r1, [sp, #4]
 80037d6:	f401 4170 	and.w	r1, r1, #61440	; 0xf000
 80037da:	f5a1 5300 	sub.w	r3, r1, #8192	; 0x2000
 80037de:	4259      	negs	r1, r3
 80037e0:	4159      	adcs	r1, r3
 80037e2:	f44f 6380 	mov.w	r3, #1024	; 0x400
 80037e6:	e7eb      	b.n	80037c0 <__swhatbuf_r+0x24>

080037e8 <__smakebuf_r>:
 80037e8:	898b      	ldrh	r3, [r1, #12]
 80037ea:	b573      	push	{r0, r1, r4, r5, r6, lr}
 80037ec:	079d      	lsls	r5, r3, #30
 80037ee:	4606      	mov	r6, r0
 80037f0:	460c      	mov	r4, r1
 80037f2:	d507      	bpl.n	8003804 <__smakebuf_r+0x1c>
 80037f4:	f104 0347 	add.w	r3, r4, #71	; 0x47
 80037f8:	6023      	str	r3, [r4, #0]
 80037fa:	6123      	str	r3, [r4, #16]
 80037fc:	2301      	movs	r3, #1
 80037fe:	6163      	str	r3, [r4, #20]
 8003800:	b002      	add	sp, #8
 8003802:	bd70      	pop	{r4, r5, r6, pc}
 8003804:	ab01      	add	r3, sp, #4
 8003806:	466a      	mov	r2, sp
 8003808:	f7ff ffc8 	bl	800379c <__swhatbuf_r>
 800380c:	9900      	ldr	r1, [sp, #0]
 800380e:	4605      	mov	r5, r0
 8003810:	4630      	mov	r0, r6
 8003812:	f7ff f8af 	bl	8002974 <_malloc_r>
 8003816:	b948      	cbnz	r0, 800382c <__smakebuf_r+0x44>
 8003818:	f9b4 300c 	ldrsh.w	r3, [r4, #12]
 800381c:	059a      	lsls	r2, r3, #22
 800381e:	d4ef      	bmi.n	8003800 <__smakebuf_r+0x18>
 8003820:	f023 0303 	bic.w	r3, r3, #3
 8003824:	f043 0302 	orr.w	r3, r3, #2
 8003828:	81a3      	strh	r3, [r4, #12]
 800382a:	e7e3      	b.n	80037f4 <__smakebuf_r+0xc>
 800382c:	89a3      	ldrh	r3, [r4, #12]
 800382e:	6020      	str	r0, [r4, #0]
 8003830:	f043 0380 	orr.w	r3, r3, #128	; 0x80
 8003834:	81a3      	strh	r3, [r4, #12]
 8003836:	9b00      	ldr	r3, [sp, #0]
 8003838:	6163      	str	r3, [r4, #20]
 800383a:	9b01      	ldr	r3, [sp, #4]
 800383c:	6120      	str	r0, [r4, #16]
 800383e:	b15b      	cbz	r3, 8003858 <__smakebuf_r+0x70>
 8003840:	f9b4 100e 	ldrsh.w	r1, [r4, #14]
 8003844:	4630      	mov	r0, r6
 8003846:	f000 f81d 	bl	8003884 <_isatty_r>
 800384a:	b128      	cbz	r0, 8003858 <__smakebuf_r+0x70>
 800384c:	89a3      	ldrh	r3, [r4, #12]
 800384e:	f023 0303 	bic.w	r3, r3, #3
 8003852:	f043 0301 	orr.w	r3, r3, #1
 8003856:	81a3      	strh	r3, [r4, #12]
 8003858:	89a3      	ldrh	r3, [r4, #12]
 800385a:	431d      	orrs	r5, r3
 800385c:	81a5      	strh	r5, [r4, #12]
 800385e:	e7cf      	b.n	8003800 <__smakebuf_r+0x18>

08003860 <_fstat_r>:
 8003860:	b538      	push	{r3, r4, r5, lr}
 8003862:	4d07      	ldr	r5, [pc, #28]	; (8003880 <_fstat_r+0x20>)
 8003864:	2300      	movs	r3, #0
 8003866:	4604      	mov	r4, r0
 8003868:	4608      	mov	r0, r1
 800386a:	4611      	mov	r1, r2
 800386c:	602b      	str	r3, [r5, #0]
 800386e:	f7fd faac 	bl	8000dca <_fstat>
 8003872:	1c43      	adds	r3, r0, #1
 8003874:	d102      	bne.n	800387c <_fstat_r+0x1c>
 8003876:	682b      	ldr	r3, [r5, #0]
 8003878:	b103      	cbz	r3, 800387c <_fstat_r+0x1c>
 800387a:	6023      	str	r3, [r4, #0]
 800387c:	bd38      	pop	{r3, r4, r5, pc}
 800387e:	bf00      	nop
 8003880:	20000334 	.word	0x20000334

08003884 <_isatty_r>:
 8003884:	b538      	push	{r3, r4, r5, lr}
 8003886:	4d06      	ldr	r5, [pc, #24]	; (80038a0 <_isatty_r+0x1c>)
 8003888:	2300      	movs	r3, #0
 800388a:	4604      	mov	r4, r0
 800388c:	4608      	mov	r0, r1
 800388e:	602b      	str	r3, [r5, #0]
 8003890:	f7fd faab 	bl	8000dea <_isatty>
 8003894:	1c43      	adds	r3, r0, #1
 8003896:	d102      	bne.n	800389e <_isatty_r+0x1a>
 8003898:	682b      	ldr	r3, [r5, #0]
 800389a:	b103      	cbz	r3, 800389e <_isatty_r+0x1a>
 800389c:	6023      	str	r3, [r4, #0]
 800389e:	bd38      	pop	{r3, r4, r5, pc}
 80038a0:	20000334 	.word	0x20000334

080038a4 <abort>:
 80038a4:	b508      	push	{r3, lr}
 80038a6:	2006      	movs	r0, #6
 80038a8:	f000 f82c 	bl	8003904 <raise>
 80038ac:	2001      	movs	r0, #1
 80038ae:	f7fd fa3d 	bl	8000d2c <_exit>

080038b2 <_raise_r>:
 80038b2:	291f      	cmp	r1, #31
 80038b4:	b538      	push	{r3, r4, r5, lr}
 80038b6:	4604      	mov	r4, r0
 80038b8:	460d      	mov	r5, r1
 80038ba:	d904      	bls.n	80038c6 <_raise_r+0x14>
 80038bc:	2316      	movs	r3, #22
 80038be:	6003      	str	r3, [r0, #0]
 80038c0:	f04f 30ff 	mov.w	r0, #4294967295
 80038c4:	bd38      	pop	{r3, r4, r5, pc}
 80038c6:	6bc2      	ldr	r2, [r0, #60]	; 0x3c
 80038c8:	b112      	cbz	r2, 80038d0 <_raise_r+0x1e>
 80038ca:	f852 3021 	ldr.w	r3, [r2, r1, lsl #2]
 80038ce:	b94b      	cbnz	r3, 80038e4 <_raise_r+0x32>
 80038d0:	4620      	mov	r0, r4
 80038d2:	f000 f831 	bl	8003938 <_getpid_r>
 80038d6:	462a      	mov	r2, r5
 80038d8:	4601      	mov	r1, r0
 80038da:	4620      	mov	r0, r4
 80038dc:	e8bd 4038 	ldmia.w	sp!, {r3, r4, r5, lr}
 80038e0:	f000 b818 	b.w	8003914 <_kill_r>
 80038e4:	2b01      	cmp	r3, #1
 80038e6:	d00a      	beq.n	80038fe <_raise_r+0x4c>
 80038e8:	1c59      	adds	r1, r3, #1
 80038ea:	d103      	bne.n	80038f4 <_raise_r+0x42>
 80038ec:	2316      	movs	r3, #22
 80038ee:	6003      	str	r3, [r0, #0]
 80038f0:	2001      	movs	r0, #1
 80038f2:	e7e7      	b.n	80038c4 <_raise_r+0x12>
 80038f4:	2400      	movs	r4, #0
 80038f6:	f842 4025 	str.w	r4, [r2, r5, lsl #2]
 80038fa:	4628      	mov	r0, r5
 80038fc:	4798      	blx	r3
 80038fe:	2000      	movs	r0, #0
 8003900:	e7e0      	b.n	80038c4 <_raise_r+0x12>
	...

08003904 <raise>:
 8003904:	4b02      	ldr	r3, [pc, #8]	; (8003910 <raise+0xc>)
 8003906:	4601      	mov	r1, r0
 8003908:	6818      	ldr	r0, [r3, #0]
 800390a:	f7ff bfd2 	b.w	80038b2 <_raise_r>
 800390e:	bf00      	nop
 8003910:	20000058 	.word	0x20000058

08003914 <_kill_r>:
 8003914:	b538      	push	{r3, r4, r5, lr}
 8003916:	4d07      	ldr	r5, [pc, #28]	; (8003934 <_kill_r+0x20>)
 8003918:	2300      	movs	r3, #0
 800391a:	4604      	mov	r4, r0
 800391c:	4608      	mov	r0, r1
 800391e:	4611      	mov	r1, r2
 8003920:	602b      	str	r3, [r5, #0]
 8003922:	f7fd f9f3 	bl	8000d0c <_kill>
 8003926:	1c43      	adds	r3, r0, #1
 8003928:	d102      	bne.n	8003930 <_kill_r+0x1c>
 800392a:	682b      	ldr	r3, [r5, #0]
 800392c:	b103      	cbz	r3, 8003930 <_kill_r+0x1c>
 800392e:	6023      	str	r3, [r4, #0]
 8003930:	bd38      	pop	{r3, r4, r5, pc}
 8003932:	bf00      	nop
 8003934:	20000334 	.word	0x20000334

08003938 <_getpid_r>:
 8003938:	f7fd b9e0 	b.w	8000cfc <_getpid>

0800393c <_init>:
 800393c:	b5f8      	push	{r3, r4, r5, r6, r7, lr}
 800393e:	bf00      	nop
 8003940:	bcf8      	pop	{r3, r4, r5, r6, r7}
 8003942:	bc08      	pop	{r3}
 8003944:	469e      	mov	lr, r3
 8003946:	4770      	bx	lr

08003948 <_fini>:
 8003948:	b5f8      	push	{r3, r4, r5, r6, r7, lr}
 800394a:	bf00      	nop
 800394c:	bcf8      	pop	{r3, r4, r5, r6, r7}
 800394e:	bc08      	pop	{r3}
 8003950:	469e      	mov	lr, r3
 8003952:	4770      	bx	lr
